Archive member included to satisfy reference by file (symbol)

../../sysroot/lib/libbmetal_crt.a(isr.S.o)
                              (--whole-archive)
../../sysroot/lib/libbmetal_crt.a(start.S.o)
                              (--whole-archive)
../../sysroot/lib/libbmetal_crt.a(switch.S.o)
                              (--whole-archive)
../../sysroot/lib/libbmetal_crt.a(cpu.c.o)
                              (--whole-archive)
../../sysroot/lib/libbmetal_crt.a(intr.c.o)
                              (--whole-archive)
../../sysroot/lib/libbmetal_crt.a(lock.c.o)
                              (--whole-archive)
../../sysroot/lib/libbmetal_crt.a(sync.c.o)
                              (--whole-archive)
../../sysroot/lib/libbmetal_crt.a(thread.c.o)
                              (--whole-archive)
../../sysroot/lib/libbmetal_crt.a(start.S.o)
                              (--whole-archive)
../../sysroot/lib/libbmetal_crt.a(soc.c.o)
                              (--whole-archive)
../../sysroot/lib/libbmetal_crt.a(clock.c.o)
                              (--whole-archive)
../../sysroot/lib/libbmetal_crt.a(event.c.o)
                              (--whole-archive)
../../sysroot/lib/libbmetal_crt.a(file.c.o)
                              (--whole-archive)
../../sysroot/lib/libbmetal_crt.a(fini.c.o)
                              (--whole-archive)
../../sysroot/lib/libbmetal_crt.a(init.c.o)
                              (--whole-archive)
../../sysroot/lib/libbmetal_crt.a(intr.c.o)
                              (--whole-archive)
../../sysroot/lib/libbmetal_crt.a(lock.c.o)
                              (--whole-archive)
../../sysroot/lib/libbmetal_crt.a(printk.c.o)
                              (--whole-archive)
../../sysroot/lib/libbmetal_crt.a(smp.c.o)
                              (--whole-archive)
../../sysroot/lib/libbmetal_crt.a(syscall.c.o)
                              (--whole-archive)
../../sysroot/lib/libbmetal_crt.a(thread.c.o)
                              (--whole-archive)
../../sysroot/lib/libbmetal_crt.a(vsprintf.c.o)
                              (--whole-archive)
../../sysroot/lib/libbmetal_crt.a(crt.c.o)
                              (--whole-archive)
../../sysroot/lib/libbmetal_crt.a(support.c.o)
                              (--whole-archive)
../../sysroot/lib/libbmetal_crt.a(string.c.o)
                              (--whole-archive)
../../sysroot/lib/libbmetal_crt.a(board.c.o)
                              (--whole-archive)
../../sysroot/lib/libbmetal_crt.a(device.c.o)
                              (--whole-archive)
../../sysroot/lib/libbmetal_crt.a(io.c.o)
                              (--whole-archive)
../../sysroot/lib/libbmetal_crt.a(cpu.c.o)
                              (--whole-archive)
../../sysroot/lib/libbmetal_crt.a(riscv.c.o)
                              (--whole-archive)
../../sysroot/lib/libbmetal_crt.a(clk.c.o)
                              (--whole-archive)
../../sysroot/lib/libbmetal_crt.a(clk_fixed.c.o)
                              (--whole-archive)
../../sysroot/lib/libbmetal_crt.a(intc.c.o)
                              (--whole-archive)
../../sysroot/lib/libbmetal_crt.a(rv_priv.c.o)
                              (--whole-archive)
../../sysroot/lib/libbmetal_crt.a(timer.c.o)
                              (--whole-archive)
../../sysroot/lib/libbmetal_crt.a(clint_timer.c.o)
                              (--whole-archive)
../../sysroot/lib/libbmetal_crt.a(uart.c.o)
                              (--whole-archive)
../../sysroot/lib/libbmetal_crt.a(uart_lite.c.o)
                              (--whole-archive)
/opt/riscv/lib/gcc/riscv64-unknown-elf/9.2.0/../../../../riscv64-unknown-elf/lib/rv32im/ilp32/libc.a(lib_a-atexit.o)
                              ../../sysroot/lib/libbmetal_crt.a(crt.c.o) (atexit)
/opt/riscv/lib/gcc/riscv64-unknown-elf/9.2.0/../../../../riscv64-unknown-elf/lib/rv32im/ilp32/libc.a(lib_a-exit.o)
                              /opt/riscv/lib/gcc/riscv64-unknown-elf/9.2.0/../../../../riscv64-unknown-elf/lib/rv32im/ilp32/crt0.o (exit)
/opt/riscv/lib/gcc/riscv64-unknown-elf/9.2.0/../../../../riscv64-unknown-elf/lib/rv32im/ilp32/libc.a(lib_a-fini.o)
                              ../../sysroot/lib/libbmetal_crt.a(crt.c.o) (__libc_fini_array)
/opt/riscv/lib/gcc/riscv64-unknown-elf/9.2.0/../../../../riscv64-unknown-elf/lib/rv32im/ilp32/libc.a(lib_a-impure.o)
                              /opt/riscv/lib/gcc/riscv64-unknown-elf/9.2.0/../../../../riscv64-unknown-elf/lib/rv32im/ilp32/libc.a(lib_a-exit.o) (_global_impure_ptr)
/opt/riscv/lib/gcc/riscv64-unknown-elf/9.2.0/../../../../riscv64-unknown-elf/lib/rv32im/ilp32/libc.a(lib_a-init.o)
                              /opt/riscv/lib/gcc/riscv64-unknown-elf/9.2.0/../../../../riscv64-unknown-elf/lib/rv32im/ilp32/crt0.o (__libc_init_array)
/opt/riscv/lib/gcc/riscv64-unknown-elf/9.2.0/../../../../riscv64-unknown-elf/lib/rv32im/ilp32/libc.a(lib_a-memset.o)
                              /opt/riscv/lib/gcc/riscv64-unknown-elf/9.2.0/../../../../riscv64-unknown-elf/lib/rv32im/ilp32/crt0.o (memset)
/opt/riscv/lib/gcc/riscv64-unknown-elf/9.2.0/../../../../riscv64-unknown-elf/lib/rv32im/ilp32/libc.a(lib_a-__atexit.o)
                              /opt/riscv/lib/gcc/riscv64-unknown-elf/9.2.0/../../../../riscv64-unknown-elf/lib/rv32im/ilp32/libc.a(lib_a-atexit.o) (__register_exitproc)
/opt/riscv/lib/gcc/riscv64-unknown-elf/9.2.0/../../../../riscv64-unknown-elf/lib/rv32im/ilp32/libc.a(lib_a-__call_atexit.o)
                              /opt/riscv/lib/gcc/riscv64-unknown-elf/9.2.0/../../../../riscv64-unknown-elf/lib/rv32im/ilp32/libc.a(lib_a-exit.o) (__call_exitprocs)
/opt/riscv/lib/gcc/riscv64-unknown-elf/9.2.0/rv32im/ilp32/libgcc.a(_divdi3.o)
                              ../../sysroot/lib/libbmetal_crt.a(syscall.c.o) (__divdi3)
/opt/riscv/lib/gcc/riscv64-unknown-elf/9.2.0/rv32im/ilp32/libgcc.a(_udivdi3.o)
                              ../../sysroot/lib/libbmetal_crt.a(clock.c.o) (__udivdi3)
/opt/riscv/lib/gcc/riscv64-unknown-elf/9.2.0/rv32im/ilp32/libgcc.a(_umoddi3.o)
                              ../../sysroot/lib/libbmetal_crt.a(clock.c.o) (__umoddi3)
/opt/riscv/lib/gcc/riscv64-unknown-elf/9.2.0/rv32im/ilp32/libgcc.a(adddf3.o)
                              ../../sysroot/lib/libbmetal_crt.a(vsprintf.c.o) (__adddf3)
/opt/riscv/lib/gcc/riscv64-unknown-elf/9.2.0/rv32im/ilp32/libgcc.a(divdf3.o)
                              ../../sysroot/lib/libbmetal_crt.a(vsprintf.c.o) (__divdf3)
/opt/riscv/lib/gcc/riscv64-unknown-elf/9.2.0/rv32im/ilp32/libgcc.a(eqdf2.o)
                              ../../sysroot/lib/libbmetal_crt.a(vsprintf.c.o) (__nedf2)
/opt/riscv/lib/gcc/riscv64-unknown-elf/9.2.0/rv32im/ilp32/libgcc.a(gedf2.o)
                              ../../sysroot/lib/libbmetal_crt.a(vsprintf.c.o) (__gedf2)
/opt/riscv/lib/gcc/riscv64-unknown-elf/9.2.0/rv32im/ilp32/libgcc.a(ledf2.o)
                              ../../sysroot/lib/libbmetal_crt.a(vsprintf.c.o) (__ledf2)
/opt/riscv/lib/gcc/riscv64-unknown-elf/9.2.0/rv32im/ilp32/libgcc.a(muldf3.o)
                              ../../sysroot/lib/libbmetal_crt.a(vsprintf.c.o) (__muldf3)
/opt/riscv/lib/gcc/riscv64-unknown-elf/9.2.0/rv32im/ilp32/libgcc.a(subdf3.o)
                              ../../sysroot/lib/libbmetal_crt.a(vsprintf.c.o) (__subdf3)
/opt/riscv/lib/gcc/riscv64-unknown-elf/9.2.0/rv32im/ilp32/libgcc.a(fixdfsi.o)
                              ../../sysroot/lib/libbmetal_crt.a(vsprintf.c.o) (__fixdfsi)
/opt/riscv/lib/gcc/riscv64-unknown-elf/9.2.0/rv32im/ilp32/libgcc.a(fixunsdfsi.o)
                              ../../sysroot/lib/libbmetal_crt.a(vsprintf.c.o) (__fixunsdfsi)
/opt/riscv/lib/gcc/riscv64-unknown-elf/9.2.0/rv32im/ilp32/libgcc.a(floatsidf.o)
                              ../../sysroot/lib/libbmetal_crt.a(vsprintf.c.o) (__floatsidf)
/opt/riscv/lib/gcc/riscv64-unknown-elf/9.2.0/rv32im/ilp32/libgcc.a(floatunsidf.o)
                              ../../sysroot/lib/libbmetal_crt.a(vsprintf.c.o) (__floatunsidf)
/opt/riscv/lib/gcc/riscv64-unknown-elf/9.2.0/rv32im/ilp32/libgcc.a(_clz.o)
                              /opt/riscv/lib/gcc/riscv64-unknown-elf/9.2.0/rv32im/ilp32/libgcc.a(_divdi3.o) (__clz_tab)
/opt/riscv/lib/gcc/riscv64-unknown-elf/9.2.0/rv32im/ilp32/libgcc.a(_clzsi2.o)
                              /opt/riscv/lib/gcc/riscv64-unknown-elf/9.2.0/rv32im/ilp32/libgcc.a(adddf3.o) (__clzsi2)
/opt/riscv/lib/gcc/riscv64-unknown-elf/9.2.0/../../../../riscv64-unknown-elf/lib/rv32im/ilp32/libc.a(lib_a-printf.o)
                              akaria_timer.o (printf)
/opt/riscv/lib/gcc/riscv64-unknown-elf/9.2.0/../../../../riscv64-unknown-elf/lib/rv32im/ilp32/libc.a(lib_a-vfprintf.o)
                              /opt/riscv/lib/gcc/riscv64-unknown-elf/9.2.0/../../../../riscv64-unknown-elf/lib/rv32im/ilp32/libc.a(lib_a-printf.o) (_vfprintf_r)
/opt/riscv/lib/gcc/riscv64-unknown-elf/9.2.0/../../../../riscv64-unknown-elf/lib/rv32im/ilp32/libc.a(lib_a-wsetup.o)
                              /opt/riscv/lib/gcc/riscv64-unknown-elf/9.2.0/../../../../riscv64-unknown-elf/lib/rv32im/ilp32/libc.a(lib_a-vfprintf.o) (__swsetup_r)
/opt/riscv/lib/gcc/riscv64-unknown-elf/9.2.0/../../../../riscv64-unknown-elf/lib/rv32im/ilp32/libc.a(lib_a-fflush.o)
                              /opt/riscv/lib/gcc/riscv64-unknown-elf/9.2.0/../../../../riscv64-unknown-elf/lib/rv32im/ilp32/libc.a(lib_a-vfprintf.o) (_fflush_r)
/opt/riscv/lib/gcc/riscv64-unknown-elf/9.2.0/../../../../riscv64-unknown-elf/lib/rv32im/ilp32/libc.a(lib_a-findfp.o)
                              /opt/riscv/lib/gcc/riscv64-unknown-elf/9.2.0/../../../../riscv64-unknown-elf/lib/rv32im/ilp32/libc.a(lib_a-vfprintf.o) (__sinit)
/opt/riscv/lib/gcc/riscv64-unknown-elf/9.2.0/../../../../riscv64-unknown-elf/lib/rv32im/ilp32/libc.a(lib_a-freer.o)
                              /opt/riscv/lib/gcc/riscv64-unknown-elf/9.2.0/../../../../riscv64-unknown-elf/lib/rv32im/ilp32/libc.a(lib_a-vfprintf.o) (_free_r)
/opt/riscv/lib/gcc/riscv64-unknown-elf/9.2.0/../../../../riscv64-unknown-elf/lib/rv32im/ilp32/libc.a(lib_a-fwalk.o)
                              /opt/riscv/lib/gcc/riscv64-unknown-elf/9.2.0/../../../../riscv64-unknown-elf/lib/rv32im/ilp32/libc.a(lib_a-findfp.o) (_fwalk)
/opt/riscv/lib/gcc/riscv64-unknown-elf/9.2.0/../../../../riscv64-unknown-elf/lib/rv32im/ilp32/libc.a(lib_a-ldtoa.o)
                              /opt/riscv/lib/gcc/riscv64-unknown-elf/9.2.0/../../../../riscv64-unknown-elf/lib/rv32im/ilp32/libc.a(lib_a-vfprintf.o) (_ldtoa_r)
/opt/riscv/lib/gcc/riscv64-unknown-elf/9.2.0/../../../../riscv64-unknown-elf/lib/rv32im/ilp32/libc.a(lib_a-localeconv.o)
                              /opt/riscv/lib/gcc/riscv64-unknown-elf/9.2.0/../../../../riscv64-unknown-elf/lib/rv32im/ilp32/libc.a(lib_a-vfprintf.o) (_localeconv_r)
/opt/riscv/lib/gcc/riscv64-unknown-elf/9.2.0/../../../../riscv64-unknown-elf/lib/rv32im/ilp32/libc.a(lib_a-makebuf.o)
                              /opt/riscv/lib/gcc/riscv64-unknown-elf/9.2.0/../../../../riscv64-unknown-elf/lib/rv32im/ilp32/libc.a(lib_a-wsetup.o) (__smakebuf_r)
/opt/riscv/lib/gcc/riscv64-unknown-elf/9.2.0/../../../../riscv64-unknown-elf/lib/rv32im/ilp32/libc.a(lib_a-mallocr.o)
                              /opt/riscv/lib/gcc/riscv64-unknown-elf/9.2.0/../../../../riscv64-unknown-elf/lib/rv32im/ilp32/libc.a(lib_a-vfprintf.o) (_malloc_r)
/opt/riscv/lib/gcc/riscv64-unknown-elf/9.2.0/../../../../riscv64-unknown-elf/lib/rv32im/ilp32/libc.a(lib_a-memchr.o)
                              /opt/riscv/lib/gcc/riscv64-unknown-elf/9.2.0/../../../../riscv64-unknown-elf/lib/rv32im/ilp32/libc.a(lib_a-vfprintf.o) (memchr)
/opt/riscv/lib/gcc/riscv64-unknown-elf/9.2.0/../../../../riscv64-unknown-elf/lib/rv32im/ilp32/libc.a(lib_a-mlock.o)
                              /opt/riscv/lib/gcc/riscv64-unknown-elf/9.2.0/../../../../riscv64-unknown-elf/lib/rv32im/ilp32/libc.a(lib_a-freer.o) (__malloc_lock)
/opt/riscv/lib/gcc/riscv64-unknown-elf/9.2.0/../../../../riscv64-unknown-elf/lib/rv32im/ilp32/libc.a(lib_a-mprec.o)
                              /opt/riscv/lib/gcc/riscv64-unknown-elf/9.2.0/../../../../riscv64-unknown-elf/lib/rv32im/ilp32/libc.a(lib_a-ldtoa.o) (_Balloc)
/opt/riscv/lib/gcc/riscv64-unknown-elf/9.2.0/../../../../riscv64-unknown-elf/lib/rv32im/ilp32/libc.a(lib_a-s_frexp.o)
                              /opt/riscv/lib/gcc/riscv64-unknown-elf/9.2.0/../../../../riscv64-unknown-elf/lib/rv32im/ilp32/libc.a(lib_a-vfprintf.o) (frexp)
/opt/riscv/lib/gcc/riscv64-unknown-elf/9.2.0/../../../../riscv64-unknown-elf/lib/rv32im/ilp32/libc.a(lib_a-sbrkr.o)
                              /opt/riscv/lib/gcc/riscv64-unknown-elf/9.2.0/../../../../riscv64-unknown-elf/lib/rv32im/ilp32/libc.a(lib_a-freer.o) (_sbrk_r)
/opt/riscv/lib/gcc/riscv64-unknown-elf/9.2.0/../../../../riscv64-unknown-elf/lib/rv32im/ilp32/libc.a(lib_a-sprintf.o)
                              /opt/riscv/lib/gcc/riscv64-unknown-elf/9.2.0/../../../../riscv64-unknown-elf/lib/rv32im/ilp32/libc.a(lib_a-ldtoa.o) (sprintf)
/opt/riscv/lib/gcc/riscv64-unknown-elf/9.2.0/../../../../riscv64-unknown-elf/lib/rv32im/ilp32/libc.a(lib_a-stdio.o)
                              /opt/riscv/lib/gcc/riscv64-unknown-elf/9.2.0/../../../../riscv64-unknown-elf/lib/rv32im/ilp32/libc.a(lib_a-findfp.o) (__sread)
/opt/riscv/lib/gcc/riscv64-unknown-elf/9.2.0/../../../../riscv64-unknown-elf/lib/rv32im/ilp32/libc.a(lib_a-strcpy.o)
                              /opt/riscv/lib/gcc/riscv64-unknown-elf/9.2.0/../../../../riscv64-unknown-elf/lib/rv32im/ilp32/libc.a(lib_a-ldtoa.o) (strcpy)
/opt/riscv/lib/gcc/riscv64-unknown-elf/9.2.0/../../../../riscv64-unknown-elf/lib/rv32im/ilp32/libc.a(lib_a-strlen.o)
                              /opt/riscv/lib/gcc/riscv64-unknown-elf/9.2.0/../../../../riscv64-unknown-elf/lib/rv32im/ilp32/libc.a(lib_a-vfprintf.o) (strlen)
/opt/riscv/lib/gcc/riscv64-unknown-elf/9.2.0/../../../../riscv64-unknown-elf/lib/rv32im/ilp32/libc.a(lib_a-strncpy.o)
                              /opt/riscv/lib/gcc/riscv64-unknown-elf/9.2.0/../../../../riscv64-unknown-elf/lib/rv32im/ilp32/libc.a(lib_a-vfprintf.o) (strncpy)
/opt/riscv/lib/gcc/riscv64-unknown-elf/9.2.0/../../../../riscv64-unknown-elf/lib/rv32im/ilp32/libc.a(lib_a-svfprintf.o)
                              /opt/riscv/lib/gcc/riscv64-unknown-elf/9.2.0/../../../../riscv64-unknown-elf/lib/rv32im/ilp32/libc.a(lib_a-sprintf.o) (_svfprintf_r)
/opt/riscv/lib/gcc/riscv64-unknown-elf/9.2.0/../../../../riscv64-unknown-elf/lib/rv32im/ilp32/libc.a(lib_a-vfiprintf.o)
                              /opt/riscv/lib/gcc/riscv64-unknown-elf/9.2.0/../../../../riscv64-unknown-elf/lib/rv32im/ilp32/libc.a(lib_a-vfprintf.o) (__sprint_r)
/opt/riscv/lib/gcc/riscv64-unknown-elf/9.2.0/../../../../riscv64-unknown-elf/lib/rv32im/ilp32/libc.a(lib_a-writer.o)
                              /opt/riscv/lib/gcc/riscv64-unknown-elf/9.2.0/../../../../riscv64-unknown-elf/lib/rv32im/ilp32/libc.a(lib_a-stdio.o) (_write_r)
/opt/riscv/lib/gcc/riscv64-unknown-elf/9.2.0/../../../../riscv64-unknown-elf/lib/rv32im/ilp32/libc.a(lib_a-assert.o)
                              /opt/riscv/lib/gcc/riscv64-unknown-elf/9.2.0/../../../../riscv64-unknown-elf/lib/rv32im/ilp32/libc.a(lib_a-mprec.o) (__assert_func)
/opt/riscv/lib/gcc/riscv64-unknown-elf/9.2.0/../../../../riscv64-unknown-elf/lib/rv32im/ilp32/libc.a(lib_a-callocr.o)
                              /opt/riscv/lib/gcc/riscv64-unknown-elf/9.2.0/../../../../riscv64-unknown-elf/lib/rv32im/ilp32/libc.a(lib_a-mprec.o) (_calloc_r)
/opt/riscv/lib/gcc/riscv64-unknown-elf/9.2.0/../../../../riscv64-unknown-elf/lib/rv32im/ilp32/libc.a(lib_a-closer.o)
                              /opt/riscv/lib/gcc/riscv64-unknown-elf/9.2.0/../../../../riscv64-unknown-elf/lib/rv32im/ilp32/libc.a(lib_a-stdio.o) (_close_r)
/opt/riscv/lib/gcc/riscv64-unknown-elf/9.2.0/../../../../riscv64-unknown-elf/lib/rv32im/ilp32/libc.a(lib_a-fclose.o)
                              /opt/riscv/lib/gcc/riscv64-unknown-elf/9.2.0/../../../../riscv64-unknown-elf/lib/rv32im/ilp32/libc.a(lib_a-findfp.o) (_fclose_r)
/opt/riscv/lib/gcc/riscv64-unknown-elf/9.2.0/../../../../riscv64-unknown-elf/lib/rv32im/ilp32/libc.a(lib_a-fiprintf.o)
                              /opt/riscv/lib/gcc/riscv64-unknown-elf/9.2.0/../../../../riscv64-unknown-elf/lib/rv32im/ilp32/libc.a(lib_a-assert.o) (fiprintf)
/opt/riscv/lib/gcc/riscv64-unknown-elf/9.2.0/../../../../riscv64-unknown-elf/lib/rv32im/ilp32/libc.a(lib_a-fputwc.o)
                              /opt/riscv/lib/gcc/riscv64-unknown-elf/9.2.0/../../../../riscv64-unknown-elf/lib/rv32im/ilp32/libc.a(lib_a-vfiprintf.o) (_fputwc_r)
/opt/riscv/lib/gcc/riscv64-unknown-elf/9.2.0/../../../../riscv64-unknown-elf/lib/rv32im/ilp32/libc.a(lib_a-fstatr.o)
                              /opt/riscv/lib/gcc/riscv64-unknown-elf/9.2.0/../../../../riscv64-unknown-elf/lib/rv32im/ilp32/libc.a(lib_a-makebuf.o) (_fstat_r)
/opt/riscv/lib/gcc/riscv64-unknown-elf/9.2.0/../../../../riscv64-unknown-elf/lib/rv32im/ilp32/libc.a(lib_a-fvwrite.o)
                              /opt/riscv/lib/gcc/riscv64-unknown-elf/9.2.0/../../../../riscv64-unknown-elf/lib/rv32im/ilp32/libc.a(lib_a-vfiprintf.o) (__sfvwrite_r)
/opt/riscv/lib/gcc/riscv64-unknown-elf/9.2.0/../../../../riscv64-unknown-elf/lib/rv32im/ilp32/libc.a(lib_a-isattyr.o)
                              /opt/riscv/lib/gcc/riscv64-unknown-elf/9.2.0/../../../../riscv64-unknown-elf/lib/rv32im/ilp32/libc.a(lib_a-makebuf.o) (_isatty_r)
/opt/riscv/lib/gcc/riscv64-unknown-elf/9.2.0/../../../../riscv64-unknown-elf/lib/rv32im/ilp32/libc.a(lib_a-locale.o)
                              /opt/riscv/lib/gcc/riscv64-unknown-elf/9.2.0/../../../../riscv64-unknown-elf/lib/rv32im/ilp32/libc.a(lib_a-fputwc.o) (__locale_mb_cur_max)
/opt/riscv/lib/gcc/riscv64-unknown-elf/9.2.0/../../../../riscv64-unknown-elf/lib/rv32im/ilp32/libc.a(lib_a-lseekr.o)
                              /opt/riscv/lib/gcc/riscv64-unknown-elf/9.2.0/../../../../riscv64-unknown-elf/lib/rv32im/ilp32/libc.a(lib_a-stdio.o) (_lseek_r)
/opt/riscv/lib/gcc/riscv64-unknown-elf/9.2.0/../../../../riscv64-unknown-elf/lib/rv32im/ilp32/libc.a(lib_a-mbtowc_r.o)
                              /opt/riscv/lib/gcc/riscv64-unknown-elf/9.2.0/../../../../riscv64-unknown-elf/lib/rv32im/ilp32/libc.a(lib_a-locale.o) (__ascii_mbtowc)
/opt/riscv/lib/gcc/riscv64-unknown-elf/9.2.0/../../../../riscv64-unknown-elf/lib/rv32im/ilp32/libc.a(lib_a-memcpy.o)
                              /opt/riscv/lib/gcc/riscv64-unknown-elf/9.2.0/../../../../riscv64-unknown-elf/lib/rv32im/ilp32/libc.a(lib_a-mprec.o) (memcpy)
/opt/riscv/lib/gcc/riscv64-unknown-elf/9.2.0/../../../../riscv64-unknown-elf/lib/rv32im/ilp32/libc.a(lib_a-memmove-stub.o)
                              /opt/riscv/lib/gcc/riscv64-unknown-elf/9.2.0/../../../../riscv64-unknown-elf/lib/rv32im/ilp32/libc.a(lib_a-fvwrite.o) (memmove)
/opt/riscv/lib/gcc/riscv64-unknown-elf/9.2.0/../../../../riscv64-unknown-elf/lib/rv32im/ilp32/libc.a(lib_a-readr.o)
                              /opt/riscv/lib/gcc/riscv64-unknown-elf/9.2.0/../../../../riscv64-unknown-elf/lib/rv32im/ilp32/libc.a(lib_a-stdio.o) (_read_r)
/opt/riscv/lib/gcc/riscv64-unknown-elf/9.2.0/../../../../riscv64-unknown-elf/lib/rv32im/ilp32/libc.a(lib_a-reallocr.o)
                              /opt/riscv/lib/gcc/riscv64-unknown-elf/9.2.0/../../../../riscv64-unknown-elf/lib/rv32im/ilp32/libc.a(lib_a-fvwrite.o) (_realloc_r)
/opt/riscv/lib/gcc/riscv64-unknown-elf/9.2.0/../../../../riscv64-unknown-elf/lib/rv32im/ilp32/libc.a(lib_a-reent.o)
                              /opt/riscv/lib/gcc/riscv64-unknown-elf/9.2.0/../../../../riscv64-unknown-elf/lib/rv32im/ilp32/libc.a(lib_a-sbrkr.o) (errno)
/opt/riscv/lib/gcc/riscv64-unknown-elf/9.2.0/../../../../riscv64-unknown-elf/lib/rv32im/ilp32/libc.a(lib_a-strcmp.o)
                              /opt/riscv/lib/gcc/riscv64-unknown-elf/9.2.0/../../../../riscv64-unknown-elf/lib/rv32im/ilp32/libc.a(lib_a-locale.o) (strcmp)
/opt/riscv/lib/gcc/riscv64-unknown-elf/9.2.0/../../../../riscv64-unknown-elf/lib/rv32im/ilp32/libc.a(lib_a-svfiprintf.o)
                              /opt/riscv/lib/gcc/riscv64-unknown-elf/9.2.0/../../../../riscv64-unknown-elf/lib/rv32im/ilp32/libc.a(lib_a-svfprintf.o) (__ssprint_r)
/opt/riscv/lib/gcc/riscv64-unknown-elf/9.2.0/../../../../riscv64-unknown-elf/lib/rv32im/ilp32/libc.a(lib_a-wbuf.o)
                              /opt/riscv/lib/gcc/riscv64-unknown-elf/9.2.0/../../../../riscv64-unknown-elf/lib/rv32im/ilp32/libc.a(lib_a-fputwc.o) (__swbuf_r)
/opt/riscv/lib/gcc/riscv64-unknown-elf/9.2.0/../../../../riscv64-unknown-elf/lib/rv32im/ilp32/libc.a(lib_a-wcrtomb.o)
                              /opt/riscv/lib/gcc/riscv64-unknown-elf/9.2.0/../../../../riscv64-unknown-elf/lib/rv32im/ilp32/libc.a(lib_a-fputwc.o) (_wcrtomb_r)
/opt/riscv/lib/gcc/riscv64-unknown-elf/9.2.0/../../../../riscv64-unknown-elf/lib/rv32im/ilp32/libc.a(lib_a-wctomb_r.o)
                              /opt/riscv/lib/gcc/riscv64-unknown-elf/9.2.0/../../../../riscv64-unknown-elf/lib/rv32im/ilp32/libc.a(lib_a-locale.o) (__ascii_wctomb)
/opt/riscv/lib/gcc/riscv64-unknown-elf/9.2.0/../../../../riscv64-unknown-elf/lib/rv32im/ilp32/libc.a(lib_a-abort.o)
                              /opt/riscv/lib/gcc/riscv64-unknown-elf/9.2.0/../../../../riscv64-unknown-elf/lib/rv32im/ilp32/libc.a(lib_a-assert.o) (abort)
/opt/riscv/lib/gcc/riscv64-unknown-elf/9.2.0/../../../../riscv64-unknown-elf/lib/rv32im/ilp32/libc.a(lib_a-ctype_.o)
                              /opt/riscv/lib/gcc/riscv64-unknown-elf/9.2.0/../../../../riscv64-unknown-elf/lib/rv32im/ilp32/libc.a(lib_a-locale.o) (_ctype_)
/opt/riscv/lib/gcc/riscv64-unknown-elf/9.2.0/../../../../riscv64-unknown-elf/lib/rv32im/ilp32/libc.a(lib_a-signal.o)
                              /opt/riscv/lib/gcc/riscv64-unknown-elf/9.2.0/../../../../riscv64-unknown-elf/lib/rv32im/ilp32/libc.a(lib_a-abort.o) (raise)
/opt/riscv/lib/gcc/riscv64-unknown-elf/9.2.0/../../../../riscv64-unknown-elf/lib/rv32im/ilp32/libc.a(lib_a-signalr.o)
                              /opt/riscv/lib/gcc/riscv64-unknown-elf/9.2.0/../../../../riscv64-unknown-elf/lib/rv32im/ilp32/libc.a(lib_a-signal.o) (_kill_r)
/opt/riscv/lib/gcc/riscv64-unknown-elf/9.2.0/../../../../riscv64-unknown-elf/lib/rv32im/ilp32/libgloss.a(sys_close.o)
                              /opt/riscv/lib/gcc/riscv64-unknown-elf/9.2.0/../../../../riscv64-unknown-elf/lib/rv32im/ilp32/libc.a(lib_a-closer.o) (_close)
/opt/riscv/lib/gcc/riscv64-unknown-elf/9.2.0/../../../../riscv64-unknown-elf/lib/rv32im/ilp32/libgloss.a(sys_exit.o)
                              /opt/riscv/lib/gcc/riscv64-unknown-elf/9.2.0/../../../../riscv64-unknown-elf/lib/rv32im/ilp32/libc.a(lib_a-exit.o) (_exit)
/opt/riscv/lib/gcc/riscv64-unknown-elf/9.2.0/../../../../riscv64-unknown-elf/lib/rv32im/ilp32/libgloss.a(sys_fstat.o)
                              /opt/riscv/lib/gcc/riscv64-unknown-elf/9.2.0/../../../../riscv64-unknown-elf/lib/rv32im/ilp32/libc.a(lib_a-fstatr.o) (_fstat)
/opt/riscv/lib/gcc/riscv64-unknown-elf/9.2.0/../../../../riscv64-unknown-elf/lib/rv32im/ilp32/libgloss.a(sys_getpid.o)
                              /opt/riscv/lib/gcc/riscv64-unknown-elf/9.2.0/../../../../riscv64-unknown-elf/lib/rv32im/ilp32/libc.a(lib_a-signalr.o) (_getpid)
/opt/riscv/lib/gcc/riscv64-unknown-elf/9.2.0/../../../../riscv64-unknown-elf/lib/rv32im/ilp32/libgloss.a(sys_isatty.o)
                              /opt/riscv/lib/gcc/riscv64-unknown-elf/9.2.0/../../../../riscv64-unknown-elf/lib/rv32im/ilp32/libc.a(lib_a-isattyr.o) (_isatty)
/opt/riscv/lib/gcc/riscv64-unknown-elf/9.2.0/../../../../riscv64-unknown-elf/lib/rv32im/ilp32/libgloss.a(sys_kill.o)
                              /opt/riscv/lib/gcc/riscv64-unknown-elf/9.2.0/../../../../riscv64-unknown-elf/lib/rv32im/ilp32/libc.a(lib_a-signalr.o) (_kill)
/opt/riscv/lib/gcc/riscv64-unknown-elf/9.2.0/../../../../riscv64-unknown-elf/lib/rv32im/ilp32/libgloss.a(sys_lseek.o)
                              /opt/riscv/lib/gcc/riscv64-unknown-elf/9.2.0/../../../../riscv64-unknown-elf/lib/rv32im/ilp32/libc.a(lib_a-lseekr.o) (_lseek)
/opt/riscv/lib/gcc/riscv64-unknown-elf/9.2.0/../../../../riscv64-unknown-elf/lib/rv32im/ilp32/libgloss.a(sys_read.o)
                              /opt/riscv/lib/gcc/riscv64-unknown-elf/9.2.0/../../../../riscv64-unknown-elf/lib/rv32im/ilp32/libc.a(lib_a-readr.o) (_read)
/opt/riscv/lib/gcc/riscv64-unknown-elf/9.2.0/../../../../riscv64-unknown-elf/lib/rv32im/ilp32/libgloss.a(sys_sbrk.o)
                              /opt/riscv/lib/gcc/riscv64-unknown-elf/9.2.0/../../../../riscv64-unknown-elf/lib/rv32im/ilp32/libc.a(lib_a-sbrkr.o) (_sbrk)
/opt/riscv/lib/gcc/riscv64-unknown-elf/9.2.0/../../../../riscv64-unknown-elf/lib/rv32im/ilp32/libgloss.a(sys_write.o)
                              /opt/riscv/lib/gcc/riscv64-unknown-elf/9.2.0/../../../../riscv64-unknown-elf/lib/rv32im/ilp32/libc.a(lib_a-writer.o) (_write)
/opt/riscv/lib/gcc/riscv64-unknown-elf/9.2.0/../../../../riscv64-unknown-elf/lib/rv32im/ilp32/libgloss.a(sys_conv_stat.o)
                              /opt/riscv/lib/gcc/riscv64-unknown-elf/9.2.0/../../../../riscv64-unknown-elf/lib/rv32im/ilp32/libgloss.a(sys_fstat.o) (_conv_stat)
/opt/riscv/lib/gcc/riscv64-unknown-elf/9.2.0/rv32im/ilp32/libgcc.a(eqtf2.o)
                              /opt/riscv/lib/gcc/riscv64-unknown-elf/9.2.0/../../../../riscv64-unknown-elf/lib/rv32im/ilp32/libc.a(lib_a-vfprintf.o) (__eqtf2)
/opt/riscv/lib/gcc/riscv64-unknown-elf/9.2.0/rv32im/ilp32/libgcc.a(getf2.o)
                              /opt/riscv/lib/gcc/riscv64-unknown-elf/9.2.0/../../../../riscv64-unknown-elf/lib/rv32im/ilp32/libc.a(lib_a-vfprintf.o) (__gttf2)
/opt/riscv/lib/gcc/riscv64-unknown-elf/9.2.0/rv32im/ilp32/libgcc.a(letf2.o)
                              /opt/riscv/lib/gcc/riscv64-unknown-elf/9.2.0/../../../../riscv64-unknown-elf/lib/rv32im/ilp32/libc.a(lib_a-vfprintf.o) (__lttf2)
/opt/riscv/lib/gcc/riscv64-unknown-elf/9.2.0/rv32im/ilp32/libgcc.a(multf3.o)
                              /opt/riscv/lib/gcc/riscv64-unknown-elf/9.2.0/../../../../riscv64-unknown-elf/lib/rv32im/ilp32/libc.a(lib_a-vfprintf.o) (__multf3)
/opt/riscv/lib/gcc/riscv64-unknown-elf/9.2.0/rv32im/ilp32/libgcc.a(subtf3.o)
                              /opt/riscv/lib/gcc/riscv64-unknown-elf/9.2.0/../../../../riscv64-unknown-elf/lib/rv32im/ilp32/libc.a(lib_a-vfprintf.o) (__subtf3)
/opt/riscv/lib/gcc/riscv64-unknown-elf/9.2.0/rv32im/ilp32/libgcc.a(fixtfsi.o)
                              /opt/riscv/lib/gcc/riscv64-unknown-elf/9.2.0/../../../../riscv64-unknown-elf/lib/rv32im/ilp32/libc.a(lib_a-vfprintf.o) (__fixtfsi)
/opt/riscv/lib/gcc/riscv64-unknown-elf/9.2.0/rv32im/ilp32/libgcc.a(floatsitf.o)
                              /opt/riscv/lib/gcc/riscv64-unknown-elf/9.2.0/../../../../riscv64-unknown-elf/lib/rv32im/ilp32/libc.a(lib_a-vfprintf.o) (__floatsitf)
/opt/riscv/lib/gcc/riscv64-unknown-elf/9.2.0/rv32im/ilp32/libgcc.a(extenddftf2.o)
                              /opt/riscv/lib/gcc/riscv64-unknown-elf/9.2.0/../../../../riscv64-unknown-elf/lib/rv32im/ilp32/libc.a(lib_a-vfprintf.o) (__extenddftf2)
/opt/riscv/lib/gcc/riscv64-unknown-elf/9.2.0/rv32im/ilp32/libgcc.a(trunctfdf2.o)
                              /opt/riscv/lib/gcc/riscv64-unknown-elf/9.2.0/../../../../riscv64-unknown-elf/lib/rv32im/ilp32/libc.a(lib_a-vfprintf.o) (__trunctfdf2)

割り当てている共通シンボル
共通シンボル        サイズ            ファイル

errno               0x4               /opt/riscv/lib/gcc/riscv64-unknown-elf/9.2.0/../../../../riscv64-unknown-elf/lib/rv32im/ilp32/libc.a(lib_a-reent.o)
__boot_done         0x4               ../../sysroot/lib/libbmetal_crt.a(riscv.c.o)
__boot_sp_intr      0x4               ../../sysroot/lib/libbmetal_crt.a(riscv.c.o)
__boot_sp_idle      0x4               ../../sysroot/lib/libbmetal_crt.a(riscv.c.o)

メモリ設定

名前           原点             長さ             属性
ROM              0x0000000060000000 0x0000000010000000 xr
RAM              0x0000000070000000 0x000000000000fc00 xrw
SHM              0x000000007000fc00 0x0000000000000400 xrw
*default*        0x0000000000000000 0xffffffffffffffff

リンカスクリプトおよびメモリマップ

LOAD /opt/riscv/lib/gcc/riscv64-unknown-elf/9.2.0/../../../../riscv64-unknown-elf/lib/rv32im/ilp32/crt0.o
LOAD /opt/riscv/lib/gcc/riscv64-unknown-elf/9.2.0/rv32im/ilp32/crtbegin.o

.reset          0x0000000060000000       0xdc
                0x0000000060000000                . = ALIGN (0x4)
                [!provide]                        PROVIDE (__executable_start = .)
                [!provide]                        PROVIDE (_text = .)
                [!provide]                        PROVIDE (_stext = .)
 *(.reset .reset.*)
 .reset         0x0000000060000000       0xdc ../../sysroot/lib/libbmetal_crt.a(start.S.o)
                0x0000000060000000                __reset

.init
 *(SORT_NONE(.init))

.text           0x00000000600000dc    0x1d658
                0x00000000600000dc                . = ALIGN (0x4)
 *(.text .text.*)
 .text          0x00000000600000dc       0x50 /opt/riscv/lib/gcc/riscv64-unknown-elf/9.2.0/../../../../riscv64-unknown-elf/lib/rv32im/ilp32/crt0.o
                0x00000000600000dc                _start
 .text          0x000000006000012c       0x6c /opt/riscv/lib/gcc/riscv64-unknown-elf/9.2.0/rv32im/ilp32/crtbegin.o
 .text          0x0000000060000198      0x2bc ../../sysroot/lib/libbmetal_crt.a(isr.S.o)
                0x0000000060000198                __trap_start
                0x00000000600003b4                __trap_end
 .text          0x0000000060000454        0x0 ../../sysroot/lib/libbmetal_crt.a(start.S.o)
 .text          0x0000000060000454       0xa8 ../../sysroot/lib/libbmetal_crt.a(switch.S.o)
                0x0000000060000454                __arch_riscv_copy_current_context
                0x00000000600004f0                __arch_riscv_context_switch
 .text          0x00000000600004fc      0x158 ../../sysroot/lib/libbmetal_crt.a(cpu.c.o)
                0x00000000600004fc                __arch_riscv_get_cpu_id
                0x0000000060000504                __arch_riscv_wait_interrupt
                0x000000006000050c                __arch_riscv_get_arg
                0x00000000600005b8                __arch_riscv_set_arg
 .text          0x0000000060000654      0x2d8 ../../sysroot/lib/libbmetal_crt.a(intr.c.o)
                0x0000000060000654                __arch_riscv_interrupt
                0x00000000600006f0                __arch_riscv_exception
                0x000000006000075c                __arch_riscv_get_intr_handler
                0x00000000600007cc                __arch_riscv_set_intr_handler
                0x000000006000082c                __arch_riscv_get_exc_handler
                0x000000006000089c                __arch_riscv_set_exc_handler
                0x00000000600008fc                __arch_riscv_intr_enable_local
                0x0000000060000908                __arch_riscv_intr_disable_local
                0x0000000060000914                __arch_riscv_intr_restore_local
                0x000000006000091c                __arch_riscv_intr_save_local
 .text          0x000000006000092c        0x0 ../../sysroot/lib/libbmetal_crt.a(lock.c.o)
 .text          0x000000006000092c        0x0 ../../sysroot/lib/libbmetal_crt.a(sync.c.o)
 .text          0x000000006000092c       0x4c ../../sysroot/lib/libbmetal_crt.a(thread.c.o)
                0x000000006000092c                __arch_riscv_thread_init
 .text          0x0000000060000978       0x2c ../../sysroot/lib/libbmetal_crt.a(start.S.o)
                0x0000000060000978                _crt_start
 .text          0x00000000600009a4        0x8 ../../sysroot/lib/libbmetal_crt.a(soc.c.o)
 .text          0x00000000600009ac      0x2e0 ../../sysroot/lib/libbmetal_crt.a(clock.c.o)
                0x00000000600009ac                __clock_get_monotonic
                0x0000000060000ae0                __clock_get_realtime
                0x0000000060000bbc                __clock_set_realtime
 .text          0x0000000060000c8c      0x204 ../../sysroot/lib/libbmetal_crt.a(event.c.o)
                0x0000000060000c8c                __event_alloc_handler
                0x0000000060000d08                __event_free_handler
                0x0000000060000d70                __event_add_handler
                0x0000000060000d98                __event_remove_handler
                0x0000000060000dec                __event_handle_generic
 .text          0x0000000060000e90       0x3c ../../sysroot/lib/libbmetal_crt.a(file.c.o)
                0x0000000060000e90                __file_stdio_read
                0x0000000060000e9c                __file_stdio_write
                0x0000000060000ea8                __file_stdio_init
 .text          0x0000000060000ecc       0x10 ../../sysroot/lib/libbmetal_crt.a(fini.c.o)
                0x0000000060000ecc                __fini_reboot
                0x0000000060000ed4                __fini_power_off
 .text          0x0000000060000edc      0x868 ../../sysroot/lib/libbmetal_crt.a(init.c.o)
                0x0000000060001068                __init_system
                0x0000000060001218                __fini_system
                0x000000006000121c                __init_leader
                0x0000000060001544                __fini_leader
                0x000000006000171c                __init_child
                0x0000000060001740                __fini_child
 .text          0x0000000060001744       0x10 ../../sysroot/lib/libbmetal_crt.a(intr.c.o)
                0x0000000060001744                __intr_enable_local
                0x0000000060001748                __intr_disable_local
                0x000000006000174c                __intr_restore_local
                0x0000000060001750                __intr_save_local
 .text          0x0000000060001754       0xf8 ../../sysroot/lib/libbmetal_crt.a(lock.c.o)
                0x0000000060001754                __spinlock_init
                0x0000000060001768                __spinlock_lock
                0x00000000600017a4                __spinlock_trylock
                0x00000000600017b8                __spinlock_unlock
                0x00000000600017d0                __arch_gen_spinlock_init
                0x00000000600017e4                __arch_gen_spinlock_lock
                0x0000000060001820                __arch_gen_spinlock_trylock
                0x0000000060001834                __arch_gen_spinlock_unlock
 .text          0x000000006000184c      0x410 ../../sysroot/lib/libbmetal_crt.a(printk.c.o)
                0x000000006000185c                inner_getc
                0x0000000060001864                inner_putc
                0x000000006000186c                __get_printk_in
                0x0000000060001874                __set_printk_in
                0x0000000060001898                __get_printk_out
                0x00000000600018a0                __set_printk_out
                0x00000000600018c4                kputchar
                0x0000000060001920                kputs
                0x00000000600019b0                __kread
                0x0000000060001a1c                __kwrite
                0x0000000060001aa0                vprintk
                0x0000000060001b08                printk
                0x0000000060001b48                vsnprintk
                0x0000000060001bd0                snprintk
                0x0000000060001c08                vsprintk
                0x0000000060001c18                sprintk
 .text          0x0000000060001c5c       0xb4 ../../sysroot/lib/libbmetal_crt.a(smp.c.o)
                0x0000000060001c5c                __smp_lock
                0x0000000060001c7c                __smp_unlock
                0x0000000060001c9c                __smp_find_idle_cpu
 .text          0x0000000060001d10      0xfd0 ../../sysroot/lib/libbmetal_crt.a(syscall.c.o)
                0x0000000060001d10                __sys_unknown
                0x0000000060001d18                __sys_uname
                0x0000000060001d40                __sys_prlimit64
                0x0000000060001db0                __sys_getuid
                0x0000000060001db8                __sys_geteuid
                0x0000000060001dc0                __sys_getgid
                0x0000000060001dc8                __sys_getegid
                0x0000000060001dd0                __sys_getpid
                0x0000000060001dd4                __sys_gettid
                0x0000000060001dd8                __sys_clock_gettime64
                0x0000000060001e28                __sys_clock_gettime32
                0x0000000060001e98                __sys_clock_settime64
                0x0000000060001ed8                __sys_clock_settime32
                0x0000000060001f18                __sys_gettimeofday
                0x0000000060001f88                __sys_settimeofday
                0x0000000060001fd8                __sys_getrandom
                0x0000000060002004                __sys_close
                0x0000000060002098                __sys_read
                0x0000000060002178                __sys_write
                0x0000000060002258                __sys_writev
                0x0000000060002398                __brk_area_start
                0x00000000600023a4                __brk_area_end
                0x00000000600023b0                __sys_brk
                0x0000000060002434                __sys_mmap
                0x0000000060002458                __sys_munmap
                0x000000006000247c                __sys_madvise
                0x00000000600024c8                __sys_mprotect
                0x00000000600024d0                __sys_clone
                0x0000000060002758                __sys_futex64
                0x00000000600028c4                __sys_futex32
                0x0000000060002920                __sys_set_robust_list
                0x0000000060002984                __sys_set_tid_address
                0x00000000600029dc                __sys_exit
                0x0000000060002b2c                __sys_exit_group
                0x0000000060002bcc                __sys_reboot
                0x0000000060002c6c                __sys_context_switch
 .text          0x0000000060002ce0      0x4b8 ../../sysroot/lib/libbmetal_crt.a(thread.c.o)
                0x0000000060002ce0                __proc_create
                0x0000000060002d20                __proc_get_current
                0x0000000060002d58                __proc_get_pid
                0x0000000060002d88                __proc_get_leader
                0x0000000060002d90                __proc_set_leader
                0x0000000060002d9c                __thread_idle_main
                0x0000000060002e4c                __thread_create
                0x0000000060002f58                __thread_destroy
                0x0000000060002fa0                __thread_run
                0x0000000060002fd4                __thread_stop
                0x000000006000300c                __thread_get_raw
                0x0000000060003030                __thread_get
                0x0000000060003060                __thread_get_current
                0x0000000060003078                __thread_get_tid
                0x0000000060003098                __thread_context_switch_nolock
                0x0000000060003168                __thread_context_switch
 .text          0x0000000060003198     0x1b44 ../../sysroot/lib/libbmetal_crt.a(vsprintf.c.o)
                0x0000000060004c34                inner_vprintf
                0x0000000060004c64                inner_vsnprintf
                0x0000000060004c80                inner_fctprintf
 .text          0x0000000060004cdc       0x60 ../../sysroot/lib/libbmetal_crt.a(crt.c.o)
                0x0000000060004cdc                __errno
                0x0000000060004ce4                __libc_init
 .text          0x0000000060004d3c       0xcc ../../sysroot/lib/libbmetal_crt.a(support.c.o)
                0x0000000060004d80                __init_main_thread_args
 .text          0x0000000060004e08      0x374 ../../sysroot/lib/libbmetal_crt.a(string.c.o)
                0x0000000060004e08                kmemset
                0x0000000060004eec                kmemcpy
                0x0000000060004fcc                kstrlen
                0x0000000060004ff4                kstrcmp
                0x000000006000503c                kstrncmp
                0x0000000060005080                kstrcasecmp
                0x00000000600050fc                kstrncasecmp
 .text          0x000000006000517c       0x78 ../../sysroot/lib/libbmetal_crt.a(board.c.o)
 .text          0x00000000600051f4      0x9d0 ../../sysroot/lib/libbmetal_crt.a(device.c.o)
                0x000000006000549c                __device_get_root
                0x00000000600054a8                __device_get_probe_all_enabled
                0x00000000600054b0                __device_set_probe_all_enabled
                0x00000000600054bc                __device_probe_all
                0x00000000600054d8                __driver_add
                0x00000000600055d0                __driver_remove
                0x00000000600055d8                __device_add
                0x00000000600056b0                __device_remove
                0x00000000600056c4                __device_get_conf_length
                0x0000000060005740                __device_read_conf_u32
                0x00000000600057f4                __device_read_conf_u64
                0x00000000600058ac                __device_read_conf_str
                0x0000000060005960                __device_driver_mmap
                0x000000006000599c                __bus_get_root
                0x00000000600059a8                __bus_add
                0x0000000060005ac0                __bus_remove
                0x0000000060005ad4                __bus_find_device
                0x0000000060005b88                __bus_driver_mmap
 .text          0x0000000060005bc4      0x114 ../../sysroot/lib/libbmetal_crt.a(io.c.o)
                0x0000000060005bc4                __io_mmap_device
                0x0000000060005cd0                __io_munmap_device
 .text          0x0000000060005cd8      0xab8 ../../sysroot/lib/libbmetal_crt.a(cpu.c.o)
                0x0000000060005cd8                __cpu_get_id
                0x0000000060005ce0                __cpu_get_id_phys
                0x0000000060005ce8                __cpu_get_running
                0x0000000060005cf0                __cpu_set_running
                0x0000000060005cf8                __cpu_get_user_regs
                0x0000000060005d00                __cpu_set_user_regs
                0x0000000060005d08                __cpu_lock
                0x0000000060005d10                __cpu_unlock
                0x0000000060005d18                __cpu_get_thread
                0x0000000060005d20                __cpu_set_thread
                0x0000000060005d28                __cpu_get_thread_idle
                0x0000000060005d30                __cpu_set_thread_idle
                0x0000000060005d38                __cpu_get_thread_task
                0x0000000060005d40                __cpu_set_thread_task
                0x0000000060005d48                __cpu_alloc_id
                0x0000000060005d58                __cpu_get
                0x0000000060005d8c                __cpu_set
                0x0000000060005dd0                __cpu_get_by_physical_id
                0x0000000060005e14                __cpu_get_current_user_regs
                0x0000000060005e34                __cpu_set_current_user_regs
                0x0000000060005e60                __cpu_get_current
                0x0000000060005e78                __cpu_add_device
                0x0000000060005ea4                __cpu_remove
                0x0000000060005ea8                __cpu_cache_get_line_size_i
                0x0000000060005eb0                __cpu_cache_set_line_size_i
                0x0000000060005eb8                __cpu_cache_get_line_size_d
                0x0000000060005ec0                __cpu_cache_set_line_size_d
                0x0000000060005ec8                __cpu_cache_clean_range
                0x0000000060005f5c                __cpu_cache_inv_range
                0x0000000060005ff0                __cpu_cache_flush_range
                0x0000000060006084                __cpu_add_handler
                0x00000000600060e0                __cpu_remove_handler
                0x000000006000613c                __cpu_wakeup
                0x00000000600061c4                __cpu_sleep
                0x0000000060006240                __cpu_wakeup_all
                0x000000006000627c                __cpu_sleep_all
                0x00000000600062b4                __cpu_on_wakeup
                0x000000006000634c                __cpu_on_sleep
                0x00000000600063e8                __cpu_wait_interrupt
                0x0000000060006404                __cpu_raise_ipi
                0x00000000600064c0                __cpu_futex_wait
                0x00000000600065d8                __cpu_futex_wake
                0x00000000600066d0                __cpu_get_cpu_from_config
 .text          0x0000000060006790      0x190 ../../sysroot/lib/libbmetal_crt.a(riscv.c.o)
 .text          0x0000000060006920      0x230 ../../sysroot/lib/libbmetal_crt.a(clk.c.o)
                0x0000000060006920                __clk_add_device
                0x000000006000694c                __clk_remove_device
                0x0000000060006950                __clk_enable
                0x0000000060006978                __clk_disable
                0x00000000600069a0                __clk_get_frequency
                0x0000000060006a00                __clk_set_frequency
                0x0000000060006a28                __clk_get_clk_from_config
 .text          0x0000000060006b50       0xec ../../sysroot/lib/libbmetal_crt.a(clk_fixed.c.o)
 .text          0x0000000060006c3c      0x3b8 ../../sysroot/lib/libbmetal_crt.a(intc.c.o)
                0x0000000060006c3c                __intc_set_ipi
                0x0000000060006c48                __intc_raise_ipi
                0x0000000060006d0c                __intc_add_device
                0x0000000060006d88                __intc_remove_device
                0x0000000060006d8c                __intc_add_handler
                0x0000000060006e0c                __intc_remove_handler
                0x0000000060006e80                __intc_get_conf_length
                0x0000000060006ecc                __intc_get_intc_from_config
 .text          0x0000000060006ff4      0x38c ../../sysroot/lib/libbmetal_crt.a(rv_priv.c.o)
 .text          0x0000000060007380       0x94 ../../sysroot/lib/libbmetal_crt.a(timer.c.o)
                0x0000000060007380                __timer_get_system
                0x0000000060007388                __timer_set_system
                0x0000000060007394                __timer_add_device
                0x0000000060007410                __timer_remove_device
 .text          0x0000000060007414      0x2bc ../../sysroot/lib/libbmetal_crt.a(clint_timer.c.o)
 .text          0x00000000600076d0      0x300 ../../sysroot/lib/libbmetal_crt.a(uart.c.o)
                0x0000000060007764                __uart_get_config
                0x00000000600077d8                __uart_set_config
                0x000000006000784c                __uart_set_default_console
                0x0000000060007884                __uart_read_default_config
                0x00000000600078dc                __uart_add_device
                0x0000000060007974                __uart_remove_device
 .text          0x00000000600079d0      0x3f8 ../../sysroot/lib/libbmetal_crt.a(uart_lite.c.o)
 .text          0x0000000060007dc8       0x14 /opt/riscv/lib/gcc/riscv64-unknown-elf/9.2.0/../../../../riscv64-unknown-elf/lib/rv32im/ilp32/libc.a(lib_a-atexit.o)
                0x0000000060007dc8                atexit
 .text          0x0000000060007ddc       0x30 /opt/riscv/lib/gcc/riscv64-unknown-elf/9.2.0/../../../../riscv64-unknown-elf/lib/rv32im/ilp32/libc.a(lib_a-exit.o)
                0x0000000060007ddc                exit
 .text          0x0000000060007e0c       0x5c /opt/riscv/lib/gcc/riscv64-unknown-elf/9.2.0/../../../../riscv64-unknown-elf/lib/rv32im/ilp32/libc.a(lib_a-fini.o)
                0x0000000060007e0c                __libc_fini_array
 .text          0x0000000060007e68        0x0 /opt/riscv/lib/gcc/riscv64-unknown-elf/9.2.0/../../../../riscv64-unknown-elf/lib/rv32im/ilp32/libc.a(lib_a-impure.o)
 .text          0x0000000060007e68       0x9c /opt/riscv/lib/gcc/riscv64-unknown-elf/9.2.0/../../../../riscv64-unknown-elf/lib/rv32im/ilp32/libc.a(lib_a-init.o)
                0x0000000060007e68                __libc_init_array
 .text          0x0000000060007f04       0xdc /opt/riscv/lib/gcc/riscv64-unknown-elf/9.2.0/../../../../riscv64-unknown-elf/lib/rv32im/ilp32/libc.a(lib_a-memset.o)
                0x0000000060007f04                memset
 .text          0x0000000060007fe0       0x98 /opt/riscv/lib/gcc/riscv64-unknown-elf/9.2.0/../../../../riscv64-unknown-elf/lib/rv32im/ilp32/libc.a(lib_a-__atexit.o)
                0x0000000060007fe0                __register_exitproc
 .text          0x0000000060008078      0x120 /opt/riscv/lib/gcc/riscv64-unknown-elf/9.2.0/../../../../riscv64-unknown-elf/lib/rv32im/ilp32/libc.a(lib_a-__call_atexit.o)
                0x0000000060008078                __call_exitprocs
 .text.startup  0x0000000060008198       0x18 /opt/riscv/lib/gcc/riscv64-unknown-elf/9.2.0/../../../../riscv64-unknown-elf/lib/rv32im/ilp32/libc.a(lib_a-__call_atexit.o)
 .text          0x00000000600081b0       0x98 akaria_timer.o
                0x00000000600081b0                akaria_clock
                0x00000000600081cc                akaria_diff_clock
                0x00000000600081d4                akaria_wait
                0x0000000060008224                akaria_time_print
 .text          0x0000000060008248        0x0 main.o
 .text.startup  0x0000000060008248        0x4 main.o
                0x0000000060008248                main
 .text          0x000000006000824c      0x480 /opt/riscv/lib/gcc/riscv64-unknown-elf/9.2.0/rv32im/ilp32/libgcc.a(_divdi3.o)
                0x000000006000824c                __divdi3
 .text          0x00000000600086cc      0x434 /opt/riscv/lib/gcc/riscv64-unknown-elf/9.2.0/rv32im/ilp32/libgcc.a(_udivdi3.o)
                0x00000000600086cc                __udivdi3
 .text          0x0000000060008b00      0x410 /opt/riscv/lib/gcc/riscv64-unknown-elf/9.2.0/rv32im/ilp32/libgcc.a(_umoddi3.o)
                0x0000000060008b00                __umoddi3
 .text          0x0000000060008f10      0x7bc /opt/riscv/lib/gcc/riscv64-unknown-elf/9.2.0/rv32im/ilp32/libgcc.a(adddf3.o)
                0x0000000060008f10                __adddf3
 .text          0x00000000600096cc      0x6e0 /opt/riscv/lib/gcc/riscv64-unknown-elf/9.2.0/rv32im/ilp32/libgcc.a(divdf3.o)
                0x00000000600096cc                __divdf3
 .text          0x0000000060009dac       0x8c /opt/riscv/lib/gcc/riscv64-unknown-elf/9.2.0/rv32im/ilp32/libgcc.a(eqdf2.o)
                0x0000000060009dac                __eqdf2
                0x0000000060009dac                __nedf2
 .text          0x0000000060009e38       0xe4 /opt/riscv/lib/gcc/riscv64-unknown-elf/9.2.0/rv32im/ilp32/libgcc.a(gedf2.o)
                0x0000000060009e38                __gtdf2
                0x0000000060009e38                __gedf2
 .text          0x0000000060009f1c       0xe4 /opt/riscv/lib/gcc/riscv64-unknown-elf/9.2.0/rv32im/ilp32/libgcc.a(ledf2.o)
                0x0000000060009f1c                __ltdf2
                0x0000000060009f1c                __ledf2
 .text          0x000000006000a000      0x5c4 /opt/riscv/lib/gcc/riscv64-unknown-elf/9.2.0/rv32im/ilp32/libgcc.a(muldf3.o)
                0x000000006000a000                __muldf3
 .text          0x000000006000a5c4      0x7c8 /opt/riscv/lib/gcc/riscv64-unknown-elf/9.2.0/rv32im/ilp32/libgcc.a(subdf3.o)
                0x000000006000a5c4                __subdf3
 .text          0x000000006000ad8c       0x80 /opt/riscv/lib/gcc/riscv64-unknown-elf/9.2.0/rv32im/ilp32/libgcc.a(fixdfsi.o)
                0x000000006000ad8c                __fixdfsi
 .text          0x000000006000ae0c       0x7c /opt/riscv/lib/gcc/riscv64-unknown-elf/9.2.0/rv32im/ilp32/libgcc.a(fixunsdfsi.o)
                0x000000006000ae0c                __fixunsdfsi
 .text          0x000000006000ae88       0xa8 /opt/riscv/lib/gcc/riscv64-unknown-elf/9.2.0/rv32im/ilp32/libgcc.a(floatsidf.o)
                0x000000006000ae88                __floatsidf
 .text          0x000000006000af30       0x80 /opt/riscv/lib/gcc/riscv64-unknown-elf/9.2.0/rv32im/ilp32/libgcc.a(floatunsidf.o)
                0x000000006000af30                __floatunsidf
 .text          0x000000006000afb0        0x0 /opt/riscv/lib/gcc/riscv64-unknown-elf/9.2.0/rv32im/ilp32/libgcc.a(_clz.o)
 .text          0x000000006000afb0       0x4c /opt/riscv/lib/gcc/riscv64-unknown-elf/9.2.0/rv32im/ilp32/libgcc.a(_clzsi2.o)
                0x000000006000afb0                __clzsi2
 .text          0x000000006000affc       0x8c /opt/riscv/lib/gcc/riscv64-unknown-elf/9.2.0/../../../../riscv64-unknown-elf/lib/rv32im/ilp32/libc.a(lib_a-printf.o)
                0x000000006000affc                _printf_r
                0x000000006000b03c                printf
 .text          0x000000006000b088     0x2b68 /opt/riscv/lib/gcc/riscv64-unknown-elf/9.2.0/../../../../riscv64-unknown-elf/lib/rv32im/ilp32/libc.a(lib_a-vfprintf.o)
                0x000000006000b088                _vfprintf_r
                0x000000006000db18                vfprintf
 .text          0x000000006000dbf0      0x15c /opt/riscv/lib/gcc/riscv64-unknown-elf/9.2.0/../../../../riscv64-unknown-elf/lib/rv32im/ilp32/libc.a(lib_a-wsetup.o)
                0x000000006000dbf0                __swsetup_r
 .text          0x000000006000dd4c      0x2dc /opt/riscv/lib/gcc/riscv64-unknown-elf/9.2.0/../../../../riscv64-unknown-elf/lib/rv32im/ilp32/libc.a(lib_a-fflush.o)
                0x000000006000dd4c                __sflush_r
                0x000000006000dfa8                _fflush_r
                0x000000006000e008                fflush
 .text          0x000000006000e028      0x35c /opt/riscv/lib/gcc/riscv64-unknown-elf/9.2.0/../../../../riscv64-unknown-elf/lib/rv32im/ilp32/libc.a(lib_a-findfp.o)
                0x000000006000e030                _cleanup_r
                0x000000006000e1c8                __sfmoreglue
                0x000000006000e234                __sfp
                0x000000006000e334                _cleanup
                0x000000006000e344                __sinit
                0x000000006000e354                __sfp_lock_acquire
                0x000000006000e358                __sfp_lock_release
                0x000000006000e35c                __sinit_lock_acquire
                0x000000006000e360                __sinit_lock_release
                0x000000006000e364                __fp_lock_all
                0x000000006000e374                __fp_unlock_all
 .text          0x000000006000e384      0x440 /opt/riscv/lib/gcc/riscv64-unknown-elf/9.2.0/../../../../riscv64-unknown-elf/lib/rv32im/ilp32/libc.a(lib_a-freer.o)
                0x000000006000e384                _malloc_trim_r
                0x000000006000e4b8                _free_r
 .text          0x000000006000e7c4      0x158 /opt/riscv/lib/gcc/riscv64-unknown-elf/9.2.0/../../../../riscv64-unknown-elf/lib/rv32im/ilp32/libc.a(lib_a-fwalk.o)
                0x000000006000e7c4                _fwalk
                0x000000006000e868                _fwalk_reent
 .text          0x000000006000e91c     0x2b74 /opt/riscv/lib/gcc/riscv64-unknown-elf/9.2.0/../../../../riscv64-unknown-elf/lib/rv32im/ilp32/libc.a(lib_a-ldtoa.o)
                0x0000000060010194                _ldtoa_r
                0x000000006001142c                _ldcheck
 .text          0x0000000060011490       0x20 /opt/riscv/lib/gcc/riscv64-unknown-elf/9.2.0/../../../../riscv64-unknown-elf/lib/rv32im/ilp32/libc.a(lib_a-localeconv.o)
                0x0000000060011490                __localeconv_l
                0x0000000060011498                _localeconv_r
                0x00000000600114a4                localeconv
 .text          0x00000000600114b0      0x1f0 /opt/riscv/lib/gcc/riscv64-unknown-elf/9.2.0/../../../../riscv64-unknown-elf/lib/rv32im/ilp32/libc.a(lib_a-makebuf.o)
                0x00000000600114b0                __swhatbuf_r
                0x0000000060011580                __smakebuf_r
 .text          0x00000000600116a0      0x7a0 /opt/riscv/lib/gcc/riscv64-unknown-elf/9.2.0/../../../../riscv64-unknown-elf/lib/rv32im/ilp32/libc.a(lib_a-mallocr.o)
                0x00000000600116a0                _malloc_r
 .text          0x0000000060011e40       0xd4 /opt/riscv/lib/gcc/riscv64-unknown-elf/9.2.0/../../../../riscv64-unknown-elf/lib/rv32im/ilp32/libc.a(lib_a-memchr.o)
                0x0000000060011e40                memchr
 .text          0x0000000060011f14        0x8 /opt/riscv/lib/gcc/riscv64-unknown-elf/9.2.0/../../../../riscv64-unknown-elf/lib/rv32im/ilp32/libc.a(lib_a-mlock.o)
                0x0000000060011f14                __malloc_lock
                0x0000000060011f18                __malloc_unlock
 .text          0x0000000060011f1c     0x114c /opt/riscv/lib/gcc/riscv64-unknown-elf/9.2.0/../../../../riscv64-unknown-elf/lib/rv32im/ilp32/libc.a(lib_a-mprec.o)
                0x0000000060011f1c                _Balloc
                0x0000000060011fc4                _Bfree
                0x0000000060011fe8                __multadd
                0x0000000060012134                __s2b
                0x0000000060012268                __hi0bits
                0x00000000600122dc                __lo0bits
                0x000000006001238c                __i2b
                0x00000000600123e0                __multiply
                0x0000000060012610                __pow5mult
                0x0000000060012748                __lshift
                0x00000000600128d8                __mcmp
                0x0000000060012934                __mdiff
                0x0000000060012b78                __ulp
                0x0000000060012bd8                __b2d
                0x0000000060012cf0                __d2b
                0x0000000060012e58                __ratio
                0x0000000060012f00                _mprec_log10
                0x0000000060012f9c                __copybits
                0x0000000060013004                __any_on
 .text          0x0000000060013068       0xa8 /opt/riscv/lib/gcc/riscv64-unknown-elf/9.2.0/../../../../riscv64-unknown-elf/lib/rv32im/ilp32/libc.a(lib_a-s_frexp.o)
                0x0000000060013068                frexp
 .text          0x0000000060013110       0x5c /opt/riscv/lib/gcc/riscv64-unknown-elf/9.2.0/../../../../riscv64-unknown-elf/lib/rv32im/ilp32/libc.a(lib_a-sbrkr.o)
                0x0000000060013110                _sbrk_r
 .text          0x000000006001316c       0xe4 /opt/riscv/lib/gcc/riscv64-unknown-elf/9.2.0/../../../../riscv64-unknown-elf/lib/rv32im/ilp32/libc.a(lib_a-sprintf.o)
                0x000000006001316c                _sprintf_r
                0x00000000600131d8                sprintf
 .text          0x0000000060013250      0x15c /opt/riscv/lib/gcc/riscv64-unknown-elf/9.2.0/../../../../riscv64-unknown-elf/lib/rv32im/ilp32/libc.a(lib_a-stdio.o)
                0x0000000060013250                __sread
                0x00000000600132ac                __seofread
                0x00000000600132b4                __swrite
                0x000000006001333c                __sseek
                0x00000000600133a4                __sclose
 .text          0x00000000600133ac       0xb0 /opt/riscv/lib/gcc/riscv64-unknown-elf/9.2.0/../../../../riscv64-unknown-elf/lib/rv32im/ilp32/libc.a(lib_a-strcpy.o)
                0x00000000600133ac                strcpy
 .text          0x000000006001345c       0x8c /opt/riscv/lib/gcc/riscv64-unknown-elf/9.2.0/../../../../riscv64-unknown-elf/lib/rv32im/ilp32/libc.a(lib_a-strlen.o)
                0x000000006001345c                strlen
 .text          0x00000000600134e8       0xa8 /opt/riscv/lib/gcc/riscv64-unknown-elf/9.2.0/../../../../riscv64-unknown-elf/lib/rv32im/ilp32/libc.a(lib_a-strncpy.o)
                0x00000000600134e8                strncpy
 .text          0x0000000060013590     0x2a14 /opt/riscv/lib/gcc/riscv64-unknown-elf/9.2.0/../../../../riscv64-unknown-elf/lib/rv32im/ilp32/libc.a(lib_a-svfprintf.o)
                0x0000000060013590                _svfprintf_r
 .text          0x0000000060015fa4     0x1424 /opt/riscv/lib/gcc/riscv64-unknown-elf/9.2.0/../../../../riscv64-unknown-elf/lib/rv32im/ilp32/libc.a(lib_a-vfiprintf.o)
                0x0000000060016094                __sprint_r
                0x00000000600160ac                _vfiprintf_r
                0x00000000600172f0                vfiprintf
 .text          0x00000000600173c8       0x68 /opt/riscv/lib/gcc/riscv64-unknown-elf/9.2.0/../../../../riscv64-unknown-elf/lib/rv32im/ilp32/libc.a(lib_a-writer.o)
                0x00000000600173c8                _write_r
 .text          0x0000000060017430       0x68 /opt/riscv/lib/gcc/riscv64-unknown-elf/9.2.0/../../../../riscv64-unknown-elf/lib/rv32im/ilp32/libc.a(lib_a-assert.o)
                0x0000000060017430                __assert_func
                0x0000000060017484                __assert
 .text          0x0000000060017498       0xb0 /opt/riscv/lib/gcc/riscv64-unknown-elf/9.2.0/../../../../riscv64-unknown-elf/lib/rv32im/ilp32/libc.a(lib_a-callocr.o)
                0x0000000060017498                _calloc_r
 .text          0x0000000060017548       0x5c /opt/riscv/lib/gcc/riscv64-unknown-elf/9.2.0/../../../../riscv64-unknown-elf/lib/rv32im/ilp32/libc.a(lib_a-closer.o)
                0x0000000060017548                _close_r
 .text          0x00000000600175a4      0x11c /opt/riscv/lib/gcc/riscv64-unknown-elf/9.2.0/../../../../riscv64-unknown-elf/lib/rv32im/ilp32/libc.a(lib_a-fclose.o)
                0x00000000600175a4                _fclose_r
                0x00000000600176b4                fclose
 .text          0x00000000600176c0       0x84 /opt/riscv/lib/gcc/riscv64-unknown-elf/9.2.0/../../../../riscv64-unknown-elf/lib/rv32im/ilp32/libc.a(lib_a-fiprintf.o)
                0x00000000600176c0                _fiprintf_r
                0x00000000600176f8                fiprintf
 .text          0x0000000060017744      0x1d4 /opt/riscv/lib/gcc/riscv64-unknown-elf/9.2.0/../../../../riscv64-unknown-elf/lib/rv32im/ilp32/libc.a(lib_a-fputwc.o)
                0x0000000060017744                __fputwc
                0x0000000060017870                _fputwc_r
                0x000000006001789c                fputwc
 .text          0x0000000060017918       0x64 /opt/riscv/lib/gcc/riscv64-unknown-elf/9.2.0/../../../../riscv64-unknown-elf/lib/rv32im/ilp32/libc.a(lib_a-fstatr.o)
                0x0000000060017918                _fstat_r
 .text          0x000000006001797c      0x4a8 /opt/riscv/lib/gcc/riscv64-unknown-elf/9.2.0/../../../../riscv64-unknown-elf/lib/rv32im/ilp32/libc.a(lib_a-fvwrite.o)
                0x000000006001797c                __sfvwrite_r
 .text          0x0000000060017e24       0x5c /opt/riscv/lib/gcc/riscv64-unknown-elf/9.2.0/../../../../riscv64-unknown-elf/lib/rv32im/ilp32/libc.a(lib_a-isattyr.o)
                0x0000000060017e24                _isatty_r
 .text          0x0000000060017e80       0x9c /opt/riscv/lib/gcc/riscv64-unknown-elf/9.2.0/../../../../riscv64-unknown-elf/lib/rv32im/ilp32/libc.a(lib_a-locale.o)
                0x0000000060017e80                _setlocale_r
                0x0000000060017efc                __locale_mb_cur_max
                0x0000000060017f08                setlocale
 .text          0x0000000060017f1c       0x68 /opt/riscv/lib/gcc/riscv64-unknown-elf/9.2.0/../../../../riscv64-unknown-elf/lib/rv32im/ilp32/libc.a(lib_a-lseekr.o)
                0x0000000060017f1c                _lseek_r
 .text          0x0000000060017f84       0x74 /opt/riscv/lib/gcc/riscv64-unknown-elf/9.2.0/../../../../riscv64-unknown-elf/lib/rv32im/ilp32/libc.a(lib_a-mbtowc_r.o)
                0x0000000060017f84                _mbtowc_r
                0x0000000060017f90                __ascii_mbtowc
 .text          0x0000000060017ff8      0x11c /opt/riscv/lib/gcc/riscv64-unknown-elf/9.2.0/../../../../riscv64-unknown-elf/lib/rv32im/ilp32/libc.a(lib_a-memcpy.o)
                0x0000000060017ff8                memcpy
 .text          0x0000000060018114      0x120 /opt/riscv/lib/gcc/riscv64-unknown-elf/9.2.0/../../../../riscv64-unknown-elf/lib/rv32im/ilp32/libc.a(lib_a-memmove-stub.o)
                0x0000000060018114                memmove
 .text          0x0000000060018234       0x68 /opt/riscv/lib/gcc/riscv64-unknown-elf/9.2.0/../../../../riscv64-unknown-elf/lib/rv32im/ilp32/libc.a(lib_a-readr.o)
                0x0000000060018234                _read_r
 .text          0x000000006001829c      0x578 /opt/riscv/lib/gcc/riscv64-unknown-elf/9.2.0/../../../../riscv64-unknown-elf/lib/rv32im/ilp32/libc.a(lib_a-reallocr.o)
                0x000000006001829c                _realloc_r
 .text          0x0000000060018814      0x148 /opt/riscv/lib/gcc/riscv64-unknown-elf/9.2.0/../../../../riscv64-unknown-elf/lib/rv32im/ilp32/libc.a(lib_a-reent.o)
                0x0000000060018814                cleanup_glue
                0x0000000060018854                _reclaim_reent
 .text          0x000000006001895c      0x17c /opt/riscv/lib/gcc/riscv64-unknown-elf/9.2.0/../../../../riscv64-unknown-elf/lib/rv32im/ilp32/libc.a(lib_a-strcmp.o)
                0x000000006001895c                strcmp
 .text          0x0000000060018ad8     0x1278 /opt/riscv/lib/gcc/riscv64-unknown-elf/9.2.0/../../../../riscv64-unknown-elf/lib/rv32im/ilp32/libc.a(lib_a-svfiprintf.o)
                0x0000000060018ad8                __ssprint_r
                0x0000000060018c94                _svfiprintf_r
 .text          0x0000000060019d50      0x198 /opt/riscv/lib/gcc/riscv64-unknown-elf/9.2.0/../../../../riscv64-unknown-elf/lib/rv32im/ilp32/libc.a(lib_a-wbuf.o)
                0x0000000060019d50                __swbuf_r
                0x0000000060019ed4                __swbuf
 .text          0x0000000060019ee8      0x108 /opt/riscv/lib/gcc/riscv64-unknown-elf/9.2.0/../../../../riscv64-unknown-elf/lib/rv32im/ilp32/libc.a(lib_a-wcrtomb.o)
                0x0000000060019ee8                _wcrtomb_r
                0x0000000060019f60                wcrtomb
 .text          0x0000000060019ff0       0x3c /opt/riscv/lib/gcc/riscv64-unknown-elf/9.2.0/../../../../riscv64-unknown-elf/lib/rv32im/ilp32/libc.a(lib_a-wctomb_r.o)
                0x0000000060019ff0                _wctomb_r
                0x0000000060019ffc                __ascii_wctomb
 .text          0x000000006001a02c       0x18 /opt/riscv/lib/gcc/riscv64-unknown-elf/9.2.0/../../../../riscv64-unknown-elf/lib/rv32im/ilp32/libc.a(lib_a-abort.o)
                0x000000006001a02c                abort
 .text          0x000000006001a044        0x0 /opt/riscv/lib/gcc/riscv64-unknown-elf/9.2.0/../../../../riscv64-unknown-elf/lib/rv32im/ilp32/libc.a(lib_a-ctype_.o)
 .text          0x000000006001a044      0x2c4 /opt/riscv/lib/gcc/riscv64-unknown-elf/9.2.0/../../../../riscv64-unknown-elf/lib/rv32im/ilp32/libc.a(lib_a-signal.o)
                0x000000006001a090                _init_signal_r
                0x000000006001a0a4                _signal_r
                0x000000006001a130                _raise_r
                0x000000006001a20c                __sigtramp_r
                0x000000006001a2c4                raise
                0x000000006001a2d0                signal
                0x000000006001a2e4                _init_signal
                0x000000006001a2fc                __sigtramp
 .text          0x000000006001a308       0x68 /opt/riscv/lib/gcc/riscv64-unknown-elf/9.2.0/../../../../riscv64-unknown-elf/lib/rv32im/ilp32/libc.a(lib_a-signalr.o)
                0x000000006001a308                _kill_r
                0x000000006001a36c                _getpid_r
 .text          0x000000006001a370       0x58 /opt/riscv/lib/gcc/riscv64-unknown-elf/9.2.0/../../../../riscv64-unknown-elf/lib/rv32im/ilp32/libgloss.a(sys_close.o)
                0x000000006001a370                _close
 .text          0x000000006001a3c8       0x44 /opt/riscv/lib/gcc/riscv64-unknown-elf/9.2.0/../../../../riscv64-unknown-elf/lib/rv32im/ilp32/libgloss.a(sys_exit.o)
                0x000000006001a3c8                _exit
 .text          0x000000006001a40c       0x70 /opt/riscv/lib/gcc/riscv64-unknown-elf/9.2.0/../../../../riscv64-unknown-elf/lib/rv32im/ilp32/libgloss.a(sys_fstat.o)
                0x000000006001a40c                _fstat
 .text          0x000000006001a47c        0x8 /opt/riscv/lib/gcc/riscv64-unknown-elf/9.2.0/../../../../riscv64-unknown-elf/lib/rv32im/ilp32/libgloss.a(sys_getpid.o)
                0x000000006001a47c                _getpid
 .text          0x000000006001a484       0x40 /opt/riscv/lib/gcc/riscv64-unknown-elf/9.2.0/../../../../riscv64-unknown-elf/lib/rv32im/ilp32/libgloss.a(sys_isatty.o)
                0x000000006001a484                _isatty
 .text          0x000000006001a4c4       0x24 /opt/riscv/lib/gcc/riscv64-unknown-elf/9.2.0/../../../../riscv64-unknown-elf/lib/rv32im/ilp32/libgloss.a(sys_kill.o)
                0x000000006001a4c4                _kill
 .text          0x000000006001a4e8       0x50 /opt/riscv/lib/gcc/riscv64-unknown-elf/9.2.0/../../../../riscv64-unknown-elf/lib/rv32im/ilp32/libgloss.a(sys_lseek.o)
                0x000000006001a4e8                _lseek
 .text          0x000000006001a538       0x50 /opt/riscv/lib/gcc/riscv64-unknown-elf/9.2.0/../../../../riscv64-unknown-elf/lib/rv32im/ilp32/libgloss.a(sys_read.o)
                0x000000006001a538                _read
 .text          0x000000006001a588       0x9c /opt/riscv/lib/gcc/riscv64-unknown-elf/9.2.0/../../../../riscv64-unknown-elf/lib/rv32im/ilp32/libgloss.a(sys_sbrk.o)
                0x000000006001a588                _sbrk
 .text          0x000000006001a624       0x50 /opt/riscv/lib/gcc/riscv64-unknown-elf/9.2.0/../../../../riscv64-unknown-elf/lib/rv32im/ilp32/libgloss.a(sys_write.o)
                0x000000006001a624                _write
 .text          0x000000006001a674       0xa4 /opt/riscv/lib/gcc/riscv64-unknown-elf/9.2.0/../../../../riscv64-unknown-elf/lib/rv32im/ilp32/libgloss.a(sys_conv_stat.o)
                0x000000006001a674                _conv_stat
 .text          0x000000006001a718       0xcc /opt/riscv/lib/gcc/riscv64-unknown-elf/9.2.0/rv32im/ilp32/libgcc.a(eqtf2.o)
                0x000000006001a718                __eqtf2
                0x000000006001a718                __netf2
 .text          0x000000006001a7e4      0x144 /opt/riscv/lib/gcc/riscv64-unknown-elf/9.2.0/rv32im/ilp32/libgcc.a(getf2.o)
                0x000000006001a7e4                __getf2
                0x000000006001a7e4                __gttf2
 .text          0x000000006001a928      0x144 /opt/riscv/lib/gcc/riscv64-unknown-elf/9.2.0/rv32im/ilp32/libgcc.a(letf2.o)
                0x000000006001a928                __letf2
                0x000000006001a928                __lttf2
 .text          0x000000006001aa6c     0x1004 /opt/riscv/lib/gcc/riscv64-unknown-elf/9.2.0/rv32im/ilp32/libgcc.a(multf3.o)
                0x000000006001aa6c                __multf3
 .text          0x000000006001ba70     0x1520 /opt/riscv/lib/gcc/riscv64-unknown-elf/9.2.0/rv32im/ilp32/libgcc.a(subtf3.o)
                0x000000006001ba70                __subtf3
 .text          0x000000006001cf90      0x114 /opt/riscv/lib/gcc/riscv64-unknown-elf/9.2.0/rv32im/ilp32/libgcc.a(fixtfsi.o)
                0x000000006001cf90                __fixtfsi
 .text          0x000000006001d0a4      0x150 /opt/riscv/lib/gcc/riscv64-unknown-elf/9.2.0/rv32im/ilp32/libgcc.a(floatsitf.o)
                0x000000006001d0a4                __floatsitf
 .text          0x000000006001d1f4      0x1f4 /opt/riscv/lib/gcc/riscv64-unknown-elf/9.2.0/rv32im/ilp32/libgcc.a(extenddftf2.o)
                0x000000006001d1f4                __extenddftf2
 .text          0x000000006001d3e8      0x34c /opt/riscv/lib/gcc/riscv64-unknown-elf/9.2.0/rv32im/ilp32/libgcc.a(trunctfdf2.o)
                0x000000006001d3e8                __trunctfdf2
 .text          0x000000006001d734        0x0 /opt/riscv/lib/gcc/riscv64-unknown-elf/9.2.0/rv32im/ilp32/crtend.o
 *(__libc_freeres_fn)

.fini
 *(SORT_NONE(.fini))
                [!provide]                        PROVIDE (_etext = .)
                [!provide]                        PROVIDE (etext = .)

.comm           0x000000006001d738        0x4
 *(.comm_header .comm_header.*)
 .comm          0x000000006001d738        0x4 ../../sysroot/lib/libbmetal_crt.a(init.c.o)

.initdata       0x000000006001d73c       0x24
                0x000000006001d740                . = ALIGN (0x8)
 *fill*         0x000000006001d73c        0x4 
                0x000000006001d740                __initcall_start = .
 *(.initdata .initdata.*)
 .initdata      0x000000006001d740        0x4 ../../sysroot/lib/libbmetal_crt.a(soc.c.o)
                0x000000006001d740                __init_func__soc_nsitexe_ns31_init
 .initdata      0x000000006001d744        0x4 ../../sysroot/lib/libbmetal_crt.a(board.c.o)
                0x000000006001d744                __init_func__board_ns31_arty_init
 .initdata      0x000000006001d748        0x4 ../../sysroot/lib/libbmetal_crt.a(device.c.o)
                0x000000006001d748                __init_func__bus_init
 .initdata      0x000000006001d74c        0x4 ../../sysroot/lib/libbmetal_crt.a(riscv.c.o)
                0x000000006001d74c                __init_func__cpu_riscv_init
 .initdata      0x000000006001d750        0x4 ../../sysroot/lib/libbmetal_crt.a(clk_fixed.c.o)
                0x000000006001d750                __init_func__clk_fixed_init
 .initdata      0x000000006001d754        0x4 ../../sysroot/lib/libbmetal_crt.a(rv_priv.c.o)
                0x000000006001d754                __init_func__intc_priv_init
 .initdata      0x000000006001d758        0x4 ../../sysroot/lib/libbmetal_crt.a(clint_timer.c.o)
                0x000000006001d758                __init_func__timer_clint_init
 .initdata      0x000000006001d75c        0x4 ../../sysroot/lib/libbmetal_crt.a(uart_lite.c.o)
                0x000000006001d75c                __init_func__uart_lite_init
                0x000000006001d760                __initcall_end = .

.auxdata        0x000000006001d760      0x320
 *(.auxdata .auxdata.*)
 .auxdata       0x000000006001d760       0x20 ../../sysroot/lib/libbmetal_crt.a(init.c.o)
                0x000000006001d780                PROVIDE (__ehdr_start = .)
                0x000000006001da80                . = (. + 0x300)
 *fill*         0x000000006001d780      0x300 

.rodata         0x000000006001da80     0x4b1c
 *(.rodata .rodata.*)
 .rodata.str1.4
                0x000000006001da80       0x48 ../../sysroot/lib/libbmetal_crt.a(cpu.c.o)
 .rodata        0x000000006001dac8       0x60 ../../sysroot/lib/libbmetal_crt.a(cpu.c.o)
 .rodata.str1.4
                0x000000006001db28      0x117 ../../sysroot/lib/libbmetal_crt.a(intr.c.o)
 *fill*         0x000000006001dc3f        0x1 
 .rodata.str1.4
                0x000000006001dc40       0x3a ../../sysroot/lib/libbmetal_crt.a(event.c.o)
 *fill*         0x000000006001dc7a        0x2 
 .rodata        0x000000006001dc7c        0xc ../../sysroot/lib/libbmetal_crt.a(file.c.o)
 .rodata.str1.4
                0x000000006001dc88      0x1aa ../../sysroot/lib/libbmetal_crt.a(init.c.o)
 *fill*         0x000000006001de32        0x2 
 .rodata.str1.4
                0x000000006001de34       0x1a ../../sysroot/lib/libbmetal_crt.a(smp.c.o)
 *fill*         0x000000006001de4e        0x2 
 .rodata.str1.4
                0x000000006001de50      0x3e7 ../../sysroot/lib/libbmetal_crt.a(syscall.c.o)
 *fill*         0x000000006001e237        0x1 
 .rodata        0x000000006001e238      0x1b2 ../../sysroot/lib/libbmetal_crt.a(syscall.c.o)
 *fill*         0x000000006001e3ea        0x2 
 .rodata.str1.4
                0x000000006001e3ec       0xff ../../sysroot/lib/libbmetal_crt.a(thread.c.o)
 *fill*         0x000000006001e4eb        0x1 
 .rodata.str1.4
                0x000000006001e4ec       0x15 ../../sysroot/lib/libbmetal_crt.a(vsprintf.c.o)
 *fill*         0x000000006001e501        0x7 
 .rodata        0x000000006001e508      0x230 ../../sysroot/lib/libbmetal_crt.a(vsprintf.c.o)
 .rodata        0x000000006001e738     0x1f90 ../../sysroot/lib/libbmetal_crt.a(support.c.o)
                0x000000006001e738                __table_syscalls
 .rodata.str1.4
                0x00000000600206c8       0xbb ../../sysroot/lib/libbmetal_crt.a(board.c.o)
 *fill*         0x0000000060020783        0x1 
 .rodata        0x0000000060020784      0x770 ../../sysroot/lib/libbmetal_crt.a(board.c.o)
 .rodata.str1.4
                0x0000000060020ef4      0x1d1 ../../sysroot/lib/libbmetal_crt.a(device.c.o)
                                        0x1dd (緩和前のサイズ)
 *fill*         0x00000000600210c5        0x3 
 .rodata.str1.4
                0x00000000600210c8       0x88 ../../sysroot/lib/libbmetal_crt.a(io.c.o)
                                         0x98 (緩和前のサイズ)
 .rodata.str1.4
                0x0000000060021150      0x2a8 ../../sysroot/lib/libbmetal_crt.a(cpu.c.o)
 .rodata.str1.4
                0x00000000600213f8       0x58 ../../sysroot/lib/libbmetal_crt.a(riscv.c.o)
                                         0x72 (緩和前のサイズ)
 .rodata        0x0000000060021450       0x4c ../../sysroot/lib/libbmetal_crt.a(riscv.c.o)
 .rodata.str1.4
                0x000000006002149c       0x72 ../../sysroot/lib/libbmetal_crt.a(clk.c.o)
                                         0x7a (緩和前のサイズ)
 *fill*         0x000000006002150e        0x2 
 .rodata.str1.4
                0x0000000060021510       0x26 ../../sysroot/lib/libbmetal_crt.a(clk_fixed.c.o)
                                         0x5a (緩和前のサイズ)
 *fill*         0x0000000060021536        0x2 
 .rodata        0x0000000060021538       0x3c ../../sysroot/lib/libbmetal_crt.a(clk_fixed.c.o)
 .rodata.str1.4
                0x0000000060021574       0x91 ../../sysroot/lib/libbmetal_crt.a(intc.c.o)
                                         0xdd (緩和前のサイズ)
 *fill*         0x0000000060021605        0x3 
 .rodata.str1.4
                0x0000000060021608       0x29 ../../sysroot/lib/libbmetal_crt.a(rv_priv.c.o)
                                         0x45 (緩和前のサイズ)
 *fill*         0x0000000060021631        0x3 
 .rodata        0x0000000060021634       0xa0 ../../sysroot/lib/libbmetal_crt.a(rv_priv.c.o)
 .rodata.str1.4
                0x00000000600216d4        0x7 ../../sysroot/lib/libbmetal_crt.a(timer.c.o)
 .rodata.str1.4
                0x00000000600216d4       0x40 ../../sysroot/lib/libbmetal_crt.a(clint_timer.c.o)
                                         0x69 (緩和前のサイズ)
 .rodata        0x0000000060021714       0x44 ../../sysroot/lib/libbmetal_crt.a(clint_timer.c.o)
 .rodata.str1.4
                0x0000000060021758       0x40 ../../sysroot/lib/libbmetal_crt.a(uart.c.o)
                                         0x45 (緩和前のサイズ)
 .rodata.str1.4
                0x0000000060021798       0x25 ../../sysroot/lib/libbmetal_crt.a(uart_lite.c.o)
                                         0x4e (緩和前のサイズ)
 *fill*         0x00000000600217bd        0x3 
 .rodata        0x00000000600217c0       0x3c ../../sysroot/lib/libbmetal_crt.a(uart_lite.c.o)
 .rodata.str1.4
                0x00000000600217fc       0x20 akaria_timer.o
 .rodata        0x000000006002181c       0x3c /opt/riscv/lib/gcc/riscv64-unknown-elf/9.2.0/rv32im/ilp32/libgcc.a(divdf3.o)
 .rodata        0x0000000060021858       0x3c /opt/riscv/lib/gcc/riscv64-unknown-elf/9.2.0/rv32im/ilp32/libgcc.a(muldf3.o)
 .rodata        0x0000000060021894      0x100 /opt/riscv/lib/gcc/riscv64-unknown-elf/9.2.0/rv32im/ilp32/libgcc.a(_clz.o)
                0x0000000060021894                __clz_tab
 .rodata.str1.4
                0x0000000060021994       0x3b /opt/riscv/lib/gcc/riscv64-unknown-elf/9.2.0/../../../../riscv64-unknown-elf/lib/rv32im/ilp32/libc.a(lib_a-vfprintf.o)
                                         0x42 (緩和前のサイズ)
 *fill*         0x00000000600219cf        0x1 
 .rodata        0x00000000600219d0      0x18c /opt/riscv/lib/gcc/riscv64-unknown-elf/9.2.0/../../../../riscv64-unknown-elf/lib/rv32im/ilp32/libc.a(lib_a-vfprintf.o)
 .rodata.str1.4
                0x0000000060021b5c       0x28 /opt/riscv/lib/gcc/riscv64-unknown-elf/9.2.0/../../../../riscv64-unknown-elf/lib/rv32im/ilp32/libc.a(lib_a-ldtoa.o)
 .rodata        0x0000000060021b84      0x252 /opt/riscv/lib/gcc/riscv64-unknown-elf/9.2.0/../../../../riscv64-unknown-elf/lib/rv32im/ilp32/libc.a(lib_a-ldtoa.o)
 *fill*         0x0000000060021dd6        0x2 
 .rodata.str1.4
                0x0000000060021dd8       0x66 /opt/riscv/lib/gcc/riscv64-unknown-elf/9.2.0/../../../../riscv64-unknown-elf/lib/rv32im/ilp32/libc.a(lib_a-mprec.o)
 *fill*         0x0000000060021e3e        0x2 
 .rodata        0x0000000060021e40      0x128 /opt/riscv/lib/gcc/riscv64-unknown-elf/9.2.0/../../../../riscv64-unknown-elf/lib/rv32im/ilp32/libc.a(lib_a-mprec.o)
                0x0000000060021e50                __mprec_tens
                0x0000000060021f18                __mprec_tinytens
                0x0000000060021f40                __mprec_bigtens
 .rodata.str1.4
                0x0000000060021f68       0x42 /opt/riscv/lib/gcc/riscv64-unknown-elf/9.2.0/../../../../riscv64-unknown-elf/lib/rv32im/ilp32/libc.a(lib_a-svfprintf.o)
 .rodata        0x0000000060021f68      0x18c /opt/riscv/lib/gcc/riscv64-unknown-elf/9.2.0/../../../../riscv64-unknown-elf/lib/rv32im/ilp32/libc.a(lib_a-svfprintf.o)
 .rodata.str1.4
                0x00000000600220f4       0x2f /opt/riscv/lib/gcc/riscv64-unknown-elf/9.2.0/../../../../riscv64-unknown-elf/lib/rv32im/ilp32/libc.a(lib_a-vfiprintf.o)
 .rodata        0x00000000600220f4      0x18c /opt/riscv/lib/gcc/riscv64-unknown-elf/9.2.0/../../../../riscv64-unknown-elf/lib/rv32im/ilp32/libc.a(lib_a-vfiprintf.o)
 .rodata.str1.4
                0x0000000060022280       0x3f /opt/riscv/lib/gcc/riscv64-unknown-elf/9.2.0/../../../../riscv64-unknown-elf/lib/rv32im/ilp32/libc.a(lib_a-assert.o)
                                         0x43 (緩和前のサイズ)
 *fill*         0x00000000600222bf        0x1 
 .rodata.str1.4
                0x00000000600222c0        0xe /opt/riscv/lib/gcc/riscv64-unknown-elf/9.2.0/../../../../riscv64-unknown-elf/lib/rv32im/ilp32/libc.a(lib_a-locale.o)
                                         0x12 (緩和前のサイズ)
 .rodata.str1.4
                0x00000000600222ce       0x2f /opt/riscv/lib/gcc/riscv64-unknown-elf/9.2.0/../../../../riscv64-unknown-elf/lib/rv32im/ilp32/libc.a(lib_a-svfiprintf.o)
 *fill*         0x00000000600222ce        0x2 
 .rodata        0x00000000600222d0      0x18c /opt/riscv/lib/gcc/riscv64-unknown-elf/9.2.0/../../../../riscv64-unknown-elf/lib/rv32im/ilp32/libc.a(lib_a-svfiprintf.o)
 .rodata        0x000000006002245c      0x101 /opt/riscv/lib/gcc/riscv64-unknown-elf/9.2.0/../../../../riscv64-unknown-elf/lib/rv32im/ilp32/libc.a(lib_a-ctype_.o)
                0x000000006002245c                _ctype_
 *fill*         0x000000006002255d        0x3 
 .rodata        0x0000000060022560       0x3c /opt/riscv/lib/gcc/riscv64-unknown-elf/9.2.0/rv32im/ilp32/libgcc.a(multf3.o)

.rela.dyn       0x000000006002259c        0x0
 .rela.text     0x000000006002259c        0x0 /opt/riscv/lib/gcc/riscv64-unknown-elf/9.2.0/../../../../riscv64-unknown-elf/lib/rv32im/ilp32/crt0.o
 .rela.reset    0x000000006002259c        0x0 /opt/riscv/lib/gcc/riscv64-unknown-elf/9.2.0/../../../../riscv64-unknown-elf/lib/rv32im/ilp32/crt0.o
 .rela.text.startup
                0x000000006002259c        0x0 /opt/riscv/lib/gcc/riscv64-unknown-elf/9.2.0/../../../../riscv64-unknown-elf/lib/rv32im/ilp32/crt0.o

.tdata          0x0000000070000000        0x0 ロードアドレス 0x000000006002259c
                0x0000000070000000                __tdata_start = .
 *(.tdata .tdata.* .gnu.linkonce.td.*)
                0x0000000070000000                __tdata_end = .
                0x000000006002259c                __tdata_load = LOADADDR (.tdata)

.tbss
 *(.tbss .tbss.* .gnu.linkonce.tb.*)
 *(.tcommon)

.preinit_array  0x0000000070000000        0x0 ロードアドレス 0x000000006002259c
                0x0000000070000000                __preinit_array_start = .
 *(.preinit_array)
                0x0000000070000000                __preinit_array_end = .
                0x000000006002259c                __preinit_array_load = LOADADDR (.preinit_array)

.init_array     0x0000000070000000        0x8 ロードアドレス 0x000000006002259c
                0x0000000070000000                __init_array_start = .
 *(SORT_BY_INIT_PRIORITY(.init_array.*) SORT_BY_INIT_PRIORITY(.ctors.*))
 .init_array.00000
                0x0000000070000000        0x4 /opt/riscv/lib/gcc/riscv64-unknown-elf/9.2.0/../../../../riscv64-unknown-elf/lib/rv32im/ilp32/libc.a(lib_a-__call_atexit.o)
 *(.init_array EXCLUDE_FILE(*crtend?.o *crtend.o *crtbegin?.o *crtbegin.o) .ctors)
 .init_array    0x0000000070000004        0x4 /opt/riscv/lib/gcc/riscv64-unknown-elf/9.2.0/rv32im/ilp32/crtbegin.o
                0x0000000070000008                __init_array_end = .
                0x000000006002259c                __init_array_load = LOADADDR (.init_array)

.fini_array     0x0000000070000008        0x4 ロードアドレス 0x00000000600225a4
                0x0000000070000008                __fini_array_start = .
 *(SORT_BY_INIT_PRIORITY(.fini_array.*) SORT_BY_INIT_PRIORITY(.dtors.*))
 *(.fini_array EXCLUDE_FILE(*crtend?.o *crtend.o *crtbegin?.o *crtbegin.o) .dtors)
 .fini_array    0x0000000070000008        0x4 /opt/riscv/lib/gcc/riscv64-unknown-elf/9.2.0/rv32im/ilp32/crtbegin.o
                0x000000007000000c                __fini_array_end = .
                0x00000000600225a4                __fini_array_load = LOADADDR (.fini_array)

.data           0x0000000070000010      0xca8 ロードアドレス 0x00000000600225a8
                0x0000000070000010                __data_start = .
 *(.data .data.* .gnu.linkonce.d.*)
 .data          0x0000000070000010        0x0 /opt/riscv/lib/gcc/riscv64-unknown-elf/9.2.0/../../../../riscv64-unknown-elf/lib/rv32im/ilp32/crt0.o
 .data          0x0000000070000010        0x0 /opt/riscv/lib/gcc/riscv64-unknown-elf/9.2.0/rv32im/ilp32/crtbegin.o
 .data          0x0000000070000010        0x0 ../../sysroot/lib/libbmetal_crt.a(isr.S.o)
 .data          0x0000000070000010        0x0 ../../sysroot/lib/libbmetal_crt.a(start.S.o)
 .data          0x0000000070000010        0x0 ../../sysroot/lib/libbmetal_crt.a(switch.S.o)
 .data          0x0000000070000010        0x0 ../../sysroot/lib/libbmetal_crt.a(cpu.c.o)
 .data          0x0000000070000010        0x0 ../../sysroot/lib/libbmetal_crt.a(intr.c.o)
 .data          0x0000000070000010        0x0 ../../sysroot/lib/libbmetal_crt.a(lock.c.o)
 .data          0x0000000070000010        0x0 ../../sysroot/lib/libbmetal_crt.a(sync.c.o)
 .data          0x0000000070000010        0x0 ../../sysroot/lib/libbmetal_crt.a(thread.c.o)
 .data          0x0000000070000010        0x0 ../../sysroot/lib/libbmetal_crt.a(start.S.o)
 .data          0x0000000070000010        0x0 ../../sysroot/lib/libbmetal_crt.a(soc.c.o)
 .data          0x0000000070000010        0x0 ../../sysroot/lib/libbmetal_crt.a(clock.c.o)
 .data          0x0000000070000010        0x0 ../../sysroot/lib/libbmetal_crt.a(event.c.o)
 .data          0x0000000070000010       0x60 ../../sysroot/lib/libbmetal_crt.a(file.c.o)
 .data          0x0000000070000070        0x0 ../../sysroot/lib/libbmetal_crt.a(fini.c.o)
 .data          0x0000000070000070        0x0 ../../sysroot/lib/libbmetal_crt.a(init.c.o)
 .data          0x0000000070000070        0x0 ../../sysroot/lib/libbmetal_crt.a(intr.c.o)
 .data          0x0000000070000070        0x0 ../../sysroot/lib/libbmetal_crt.a(lock.c.o)
 .data          0x0000000070000070        0x0 ../../sysroot/lib/libbmetal_crt.a(printk.c.o)
 .data          0x0000000070000070        0x0 ../../sysroot/lib/libbmetal_crt.a(smp.c.o)
 .data          0x0000000070000070        0x0 ../../sysroot/lib/libbmetal_crt.a(syscall.c.o)
 .data          0x0000000070000070        0x0 ../../sysroot/lib/libbmetal_crt.a(thread.c.o)
 .data          0x0000000070000070        0x0 ../../sysroot/lib/libbmetal_crt.a(vsprintf.c.o)
 .data          0x0000000070000070        0x0 ../../sysroot/lib/libbmetal_crt.a(crt.c.o)
 .data          0x0000000070000070        0x0 ../../sysroot/lib/libbmetal_crt.a(support.c.o)
 .data          0x0000000070000070        0x0 ../../sysroot/lib/libbmetal_crt.a(string.c.o)
 .data          0x0000000070000070      0x140 ../../sysroot/lib/libbmetal_crt.a(board.c.o)
 .data          0x00000000700001b0       0x8c ../../sysroot/lib/libbmetal_crt.a(device.c.o)
 .data          0x000000007000023c        0x0 ../../sysroot/lib/libbmetal_crt.a(io.c.o)
 .data          0x000000007000023c        0x0 ../../sysroot/lib/libbmetal_crt.a(cpu.c.o)
 .data          0x000000007000023c       0x14 ../../sysroot/lib/libbmetal_crt.a(riscv.c.o)
 .data          0x0000000070000250        0x0 ../../sysroot/lib/libbmetal_crt.a(clk.c.o)
 .data          0x0000000070000250       0x14 ../../sysroot/lib/libbmetal_crt.a(clk_fixed.c.o)
 .data          0x0000000070000264        0x0 ../../sysroot/lib/libbmetal_crt.a(intc.c.o)
 .data          0x0000000070000264       0x14 ../../sysroot/lib/libbmetal_crt.a(rv_priv.c.o)
 .data          0x0000000070000278        0x0 ../../sysroot/lib/libbmetal_crt.a(timer.c.o)
 .data          0x0000000070000278       0x14 ../../sysroot/lib/libbmetal_crt.a(clint_timer.c.o)
 .data          0x000000007000028c        0x0 ../../sysroot/lib/libbmetal_crt.a(uart.c.o)
 .data          0x000000007000028c       0x14 ../../sysroot/lib/libbmetal_crt.a(uart_lite.c.o)
 .data          0x00000000700002a0        0x0 /opt/riscv/lib/gcc/riscv64-unknown-elf/9.2.0/../../../../riscv64-unknown-elf/lib/rv32im/ilp32/libc.a(lib_a-atexit.o)
 .data          0x00000000700002a0        0x0 /opt/riscv/lib/gcc/riscv64-unknown-elf/9.2.0/../../../../riscv64-unknown-elf/lib/rv32im/ilp32/libc.a(lib_a-exit.o)
 .data          0x00000000700002a0        0x0 /opt/riscv/lib/gcc/riscv64-unknown-elf/9.2.0/../../../../riscv64-unknown-elf/lib/rv32im/ilp32/libc.a(lib_a-fini.o)
 .data          0x00000000700002a0      0x428 /opt/riscv/lib/gcc/riscv64-unknown-elf/9.2.0/../../../../riscv64-unknown-elf/lib/rv32im/ilp32/libc.a(lib_a-impure.o)
 .data          0x00000000700006c8        0x0 /opt/riscv/lib/gcc/riscv64-unknown-elf/9.2.0/../../../../riscv64-unknown-elf/lib/rv32im/ilp32/libc.a(lib_a-init.o)
 .data          0x00000000700006c8        0x0 /opt/riscv/lib/gcc/riscv64-unknown-elf/9.2.0/../../../../riscv64-unknown-elf/lib/rv32im/ilp32/libc.a(lib_a-memset.o)
 .data          0x00000000700006c8        0x0 /opt/riscv/lib/gcc/riscv64-unknown-elf/9.2.0/../../../../riscv64-unknown-elf/lib/rv32im/ilp32/libc.a(lib_a-__atexit.o)
 .data          0x00000000700006c8        0x0 /opt/riscv/lib/gcc/riscv64-unknown-elf/9.2.0/../../../../riscv64-unknown-elf/lib/rv32im/ilp32/libc.a(lib_a-__call_atexit.o)
 .data          0x00000000700006c8        0x0 akaria_timer.o
 .data          0x00000000700006c8        0x0 main.o
 .data          0x00000000700006c8        0x0 /opt/riscv/lib/gcc/riscv64-unknown-elf/9.2.0/rv32im/ilp32/libgcc.a(_divdi3.o)
 .data          0x00000000700006c8        0x0 /opt/riscv/lib/gcc/riscv64-unknown-elf/9.2.0/rv32im/ilp32/libgcc.a(_udivdi3.o)
 .data          0x00000000700006c8        0x0 /opt/riscv/lib/gcc/riscv64-unknown-elf/9.2.0/rv32im/ilp32/libgcc.a(_umoddi3.o)
 .data          0x00000000700006c8        0x0 /opt/riscv/lib/gcc/riscv64-unknown-elf/9.2.0/rv32im/ilp32/libgcc.a(adddf3.o)
 .data          0x00000000700006c8        0x0 /opt/riscv/lib/gcc/riscv64-unknown-elf/9.2.0/rv32im/ilp32/libgcc.a(divdf3.o)
 .data          0x00000000700006c8        0x0 /opt/riscv/lib/gcc/riscv64-unknown-elf/9.2.0/rv32im/ilp32/libgcc.a(eqdf2.o)
 .data          0x00000000700006c8        0x0 /opt/riscv/lib/gcc/riscv64-unknown-elf/9.2.0/rv32im/ilp32/libgcc.a(gedf2.o)
 .data          0x00000000700006c8        0x0 /opt/riscv/lib/gcc/riscv64-unknown-elf/9.2.0/rv32im/ilp32/libgcc.a(ledf2.o)
 .data          0x00000000700006c8        0x0 /opt/riscv/lib/gcc/riscv64-unknown-elf/9.2.0/rv32im/ilp32/libgcc.a(muldf3.o)
 .data          0x00000000700006c8        0x0 /opt/riscv/lib/gcc/riscv64-unknown-elf/9.2.0/rv32im/ilp32/libgcc.a(subdf3.o)
 .data          0x00000000700006c8        0x0 /opt/riscv/lib/gcc/riscv64-unknown-elf/9.2.0/rv32im/ilp32/libgcc.a(fixdfsi.o)
 .data          0x00000000700006c8        0x0 /opt/riscv/lib/gcc/riscv64-unknown-elf/9.2.0/rv32im/ilp32/libgcc.a(fixunsdfsi.o)
 .data          0x00000000700006c8        0x0 /opt/riscv/lib/gcc/riscv64-unknown-elf/9.2.0/rv32im/ilp32/libgcc.a(floatsidf.o)
 .data          0x00000000700006c8        0x0 /opt/riscv/lib/gcc/riscv64-unknown-elf/9.2.0/rv32im/ilp32/libgcc.a(floatunsidf.o)
 .data          0x00000000700006c8        0x0 /opt/riscv/lib/gcc/riscv64-unknown-elf/9.2.0/rv32im/ilp32/libgcc.a(_clz.o)
 .data          0x00000000700006c8        0x0 /opt/riscv/lib/gcc/riscv64-unknown-elf/9.2.0/rv32im/ilp32/libgcc.a(_clzsi2.o)
 .data          0x00000000700006c8        0x0 /opt/riscv/lib/gcc/riscv64-unknown-elf/9.2.0/../../../../riscv64-unknown-elf/lib/rv32im/ilp32/libc.a(lib_a-printf.o)
 .data          0x00000000700006c8        0x0 /opt/riscv/lib/gcc/riscv64-unknown-elf/9.2.0/../../../../riscv64-unknown-elf/lib/rv32im/ilp32/libc.a(lib_a-vfprintf.o)
 .data          0x00000000700006c8        0x0 /opt/riscv/lib/gcc/riscv64-unknown-elf/9.2.0/../../../../riscv64-unknown-elf/lib/rv32im/ilp32/libc.a(lib_a-wsetup.o)
 .data          0x00000000700006c8        0x0 /opt/riscv/lib/gcc/riscv64-unknown-elf/9.2.0/../../../../riscv64-unknown-elf/lib/rv32im/ilp32/libc.a(lib_a-fflush.o)
 .data          0x00000000700006c8        0x0 /opt/riscv/lib/gcc/riscv64-unknown-elf/9.2.0/../../../../riscv64-unknown-elf/lib/rv32im/ilp32/libc.a(lib_a-findfp.o)
 .data          0x00000000700006c8        0x0 /opt/riscv/lib/gcc/riscv64-unknown-elf/9.2.0/../../../../riscv64-unknown-elf/lib/rv32im/ilp32/libc.a(lib_a-freer.o)
 .data          0x00000000700006c8        0x0 /opt/riscv/lib/gcc/riscv64-unknown-elf/9.2.0/../../../../riscv64-unknown-elf/lib/rv32im/ilp32/libc.a(lib_a-fwalk.o)
 .data          0x00000000700006c8        0x0 /opt/riscv/lib/gcc/riscv64-unknown-elf/9.2.0/../../../../riscv64-unknown-elf/lib/rv32im/ilp32/libc.a(lib_a-ldtoa.o)
 .data          0x00000000700006c8        0x0 /opt/riscv/lib/gcc/riscv64-unknown-elf/9.2.0/../../../../riscv64-unknown-elf/lib/rv32im/ilp32/libc.a(lib_a-localeconv.o)
 .data          0x00000000700006c8        0x0 /opt/riscv/lib/gcc/riscv64-unknown-elf/9.2.0/../../../../riscv64-unknown-elf/lib/rv32im/ilp32/libc.a(lib_a-makebuf.o)
 .data          0x00000000700006c8      0x408 /opt/riscv/lib/gcc/riscv64-unknown-elf/9.2.0/../../../../riscv64-unknown-elf/lib/rv32im/ilp32/libc.a(lib_a-mallocr.o)
                0x00000000700006c8                __malloc_av_
 .data          0x0000000070000ad0        0x0 /opt/riscv/lib/gcc/riscv64-unknown-elf/9.2.0/../../../../riscv64-unknown-elf/lib/rv32im/ilp32/libc.a(lib_a-memchr.o)
 .data          0x0000000070000ad0        0x0 /opt/riscv/lib/gcc/riscv64-unknown-elf/9.2.0/../../../../riscv64-unknown-elf/lib/rv32im/ilp32/libc.a(lib_a-mlock.o)
 .data          0x0000000070000ad0        0x0 /opt/riscv/lib/gcc/riscv64-unknown-elf/9.2.0/../../../../riscv64-unknown-elf/lib/rv32im/ilp32/libc.a(lib_a-mprec.o)
 .data          0x0000000070000ad0        0x0 /opt/riscv/lib/gcc/riscv64-unknown-elf/9.2.0/../../../../riscv64-unknown-elf/lib/rv32im/ilp32/libc.a(lib_a-s_frexp.o)
 .data          0x0000000070000ad0        0x0 /opt/riscv/lib/gcc/riscv64-unknown-elf/9.2.0/../../../../riscv64-unknown-elf/lib/rv32im/ilp32/libc.a(lib_a-sbrkr.o)
 .data          0x0000000070000ad0        0x0 /opt/riscv/lib/gcc/riscv64-unknown-elf/9.2.0/../../../../riscv64-unknown-elf/lib/rv32im/ilp32/libc.a(lib_a-sprintf.o)
 .data          0x0000000070000ad0        0x0 /opt/riscv/lib/gcc/riscv64-unknown-elf/9.2.0/../../../../riscv64-unknown-elf/lib/rv32im/ilp32/libc.a(lib_a-stdio.o)
 .data          0x0000000070000ad0        0x0 /opt/riscv/lib/gcc/riscv64-unknown-elf/9.2.0/../../../../riscv64-unknown-elf/lib/rv32im/ilp32/libc.a(lib_a-strcpy.o)
 .data          0x0000000070000ad0        0x0 /opt/riscv/lib/gcc/riscv64-unknown-elf/9.2.0/../../../../riscv64-unknown-elf/lib/rv32im/ilp32/libc.a(lib_a-strlen.o)
 .data          0x0000000070000ad0        0x0 /opt/riscv/lib/gcc/riscv64-unknown-elf/9.2.0/../../../../riscv64-unknown-elf/lib/rv32im/ilp32/libc.a(lib_a-strncpy.o)
 .data          0x0000000070000ad0        0x0 /opt/riscv/lib/gcc/riscv64-unknown-elf/9.2.0/../../../../riscv64-unknown-elf/lib/rv32im/ilp32/libc.a(lib_a-svfprintf.o)
 .data          0x0000000070000ad0        0x0 /opt/riscv/lib/gcc/riscv64-unknown-elf/9.2.0/../../../../riscv64-unknown-elf/lib/rv32im/ilp32/libc.a(lib_a-vfiprintf.o)
 .data          0x0000000070000ad0        0x0 /opt/riscv/lib/gcc/riscv64-unknown-elf/9.2.0/../../../../riscv64-unknown-elf/lib/rv32im/ilp32/libc.a(lib_a-writer.o)
 .data          0x0000000070000ad0        0x0 /opt/riscv/lib/gcc/riscv64-unknown-elf/9.2.0/../../../../riscv64-unknown-elf/lib/rv32im/ilp32/libc.a(lib_a-assert.o)
 .data          0x0000000070000ad0        0x0 /opt/riscv/lib/gcc/riscv64-unknown-elf/9.2.0/../../../../riscv64-unknown-elf/lib/rv32im/ilp32/libc.a(lib_a-callocr.o)
 .data          0x0000000070000ad0        0x0 /opt/riscv/lib/gcc/riscv64-unknown-elf/9.2.0/../../../../riscv64-unknown-elf/lib/rv32im/ilp32/libc.a(lib_a-closer.o)
 .data          0x0000000070000ad0        0x0 /opt/riscv/lib/gcc/riscv64-unknown-elf/9.2.0/../../../../riscv64-unknown-elf/lib/rv32im/ilp32/libc.a(lib_a-fclose.o)
 .data          0x0000000070000ad0        0x0 /opt/riscv/lib/gcc/riscv64-unknown-elf/9.2.0/../../../../riscv64-unknown-elf/lib/rv32im/ilp32/libc.a(lib_a-fiprintf.o)
 .data          0x0000000070000ad0        0x0 /opt/riscv/lib/gcc/riscv64-unknown-elf/9.2.0/../../../../riscv64-unknown-elf/lib/rv32im/ilp32/libc.a(lib_a-fputwc.o)
 .data          0x0000000070000ad0        0x0 /opt/riscv/lib/gcc/riscv64-unknown-elf/9.2.0/../../../../riscv64-unknown-elf/lib/rv32im/ilp32/libc.a(lib_a-fstatr.o)
 .data          0x0000000070000ad0        0x0 /opt/riscv/lib/gcc/riscv64-unknown-elf/9.2.0/../../../../riscv64-unknown-elf/lib/rv32im/ilp32/libc.a(lib_a-fvwrite.o)
 .data          0x0000000070000ad0        0x0 /opt/riscv/lib/gcc/riscv64-unknown-elf/9.2.0/../../../../riscv64-unknown-elf/lib/rv32im/ilp32/libc.a(lib_a-isattyr.o)
 .data          0x0000000070000ad0      0x16c /opt/riscv/lib/gcc/riscv64-unknown-elf/9.2.0/../../../../riscv64-unknown-elf/lib/rv32im/ilp32/libc.a(lib_a-locale.o)
                0x0000000070000ad0                __global_locale
 .data          0x0000000070000c3c        0x0 /opt/riscv/lib/gcc/riscv64-unknown-elf/9.2.0/../../../../riscv64-unknown-elf/lib/rv32im/ilp32/libc.a(lib_a-lseekr.o)
 .data          0x0000000070000c3c        0x0 /opt/riscv/lib/gcc/riscv64-unknown-elf/9.2.0/../../../../riscv64-unknown-elf/lib/rv32im/ilp32/libc.a(lib_a-mbtowc_r.o)
 .data          0x0000000070000c3c        0x0 /opt/riscv/lib/gcc/riscv64-unknown-elf/9.2.0/../../../../riscv64-unknown-elf/lib/rv32im/ilp32/libc.a(lib_a-memcpy.o)
 .data          0x0000000070000c3c        0x0 /opt/riscv/lib/gcc/riscv64-unknown-elf/9.2.0/../../../../riscv64-unknown-elf/lib/rv32im/ilp32/libc.a(lib_a-memmove-stub.o)
 .data          0x0000000070000c3c        0x0 /opt/riscv/lib/gcc/riscv64-unknown-elf/9.2.0/../../../../riscv64-unknown-elf/lib/rv32im/ilp32/libc.a(lib_a-readr.o)
 .data          0x0000000070000c3c        0x0 /opt/riscv/lib/gcc/riscv64-unknown-elf/9.2.0/../../../../riscv64-unknown-elf/lib/rv32im/ilp32/libc.a(lib_a-reallocr.o)
 .data          0x0000000070000c3c        0x0 /opt/riscv/lib/gcc/riscv64-unknown-elf/9.2.0/../../../../riscv64-unknown-elf/lib/rv32im/ilp32/libc.a(lib_a-reent.o)
 .data          0x0000000070000c3c        0x0 /opt/riscv/lib/gcc/riscv64-unknown-elf/9.2.0/../../../../riscv64-unknown-elf/lib/rv32im/ilp32/libc.a(lib_a-strcmp.o)
 .data          0x0000000070000c3c        0x0 /opt/riscv/lib/gcc/riscv64-unknown-elf/9.2.0/../../../../riscv64-unknown-elf/lib/rv32im/ilp32/libc.a(lib_a-svfiprintf.o)
 .data          0x0000000070000c3c        0x0 /opt/riscv/lib/gcc/riscv64-unknown-elf/9.2.0/../../../../riscv64-unknown-elf/lib/rv32im/ilp32/libc.a(lib_a-wbuf.o)
 .data          0x0000000070000c3c        0x0 /opt/riscv/lib/gcc/riscv64-unknown-elf/9.2.0/../../../../riscv64-unknown-elf/lib/rv32im/ilp32/libc.a(lib_a-wcrtomb.o)
 .data          0x0000000070000c3c        0x0 /opt/riscv/lib/gcc/riscv64-unknown-elf/9.2.0/../../../../riscv64-unknown-elf/lib/rv32im/ilp32/libc.a(lib_a-wctomb_r.o)
 .data          0x0000000070000c3c        0x0 /opt/riscv/lib/gcc/riscv64-unknown-elf/9.2.0/../../../../riscv64-unknown-elf/lib/rv32im/ilp32/libc.a(lib_a-abort.o)
 .data          0x0000000070000c3c        0x0 /opt/riscv/lib/gcc/riscv64-unknown-elf/9.2.0/../../../../riscv64-unknown-elf/lib/rv32im/ilp32/libc.a(lib_a-ctype_.o)
 .data          0x0000000070000c3c        0x0 /opt/riscv/lib/gcc/riscv64-unknown-elf/9.2.0/../../../../riscv64-unknown-elf/lib/rv32im/ilp32/libc.a(lib_a-signal.o)
 .data          0x0000000070000c3c        0x0 /opt/riscv/lib/gcc/riscv64-unknown-elf/9.2.0/../../../../riscv64-unknown-elf/lib/rv32im/ilp32/libc.a(lib_a-signalr.o)
 .data          0x0000000070000c3c        0x0 /opt/riscv/lib/gcc/riscv64-unknown-elf/9.2.0/../../../../riscv64-unknown-elf/lib/rv32im/ilp32/libgloss.a(sys_close.o)
 .data          0x0000000070000c3c        0x0 /opt/riscv/lib/gcc/riscv64-unknown-elf/9.2.0/../../../../riscv64-unknown-elf/lib/rv32im/ilp32/libgloss.a(sys_exit.o)
 .data          0x0000000070000c3c        0x0 /opt/riscv/lib/gcc/riscv64-unknown-elf/9.2.0/../../../../riscv64-unknown-elf/lib/rv32im/ilp32/libgloss.a(sys_fstat.o)
 .data          0x0000000070000c3c        0x0 /opt/riscv/lib/gcc/riscv64-unknown-elf/9.2.0/../../../../riscv64-unknown-elf/lib/rv32im/ilp32/libgloss.a(sys_getpid.o)
 .data          0x0000000070000c3c        0x0 /opt/riscv/lib/gcc/riscv64-unknown-elf/9.2.0/../../../../riscv64-unknown-elf/lib/rv32im/ilp32/libgloss.a(sys_isatty.o)
 .data          0x0000000070000c3c        0x0 /opt/riscv/lib/gcc/riscv64-unknown-elf/9.2.0/../../../../riscv64-unknown-elf/lib/rv32im/ilp32/libgloss.a(sys_kill.o)
 .data          0x0000000070000c3c        0x0 /opt/riscv/lib/gcc/riscv64-unknown-elf/9.2.0/../../../../riscv64-unknown-elf/lib/rv32im/ilp32/libgloss.a(sys_lseek.o)
 .data          0x0000000070000c3c        0x0 /opt/riscv/lib/gcc/riscv64-unknown-elf/9.2.0/../../../../riscv64-unknown-elf/lib/rv32im/ilp32/libgloss.a(sys_read.o)
 .data          0x0000000070000c3c        0x0 /opt/riscv/lib/gcc/riscv64-unknown-elf/9.2.0/../../../../riscv64-unknown-elf/lib/rv32im/ilp32/libgloss.a(sys_sbrk.o)
 .data          0x0000000070000c3c        0x0 /opt/riscv/lib/gcc/riscv64-unknown-elf/9.2.0/../../../../riscv64-unknown-elf/lib/rv32im/ilp32/libgloss.a(sys_write.o)
 .data          0x0000000070000c3c        0x0 /opt/riscv/lib/gcc/riscv64-unknown-elf/9.2.0/../../../../riscv64-unknown-elf/lib/rv32im/ilp32/libgloss.a(sys_conv_stat.o)
 .data          0x0000000070000c3c        0x0 /opt/riscv/lib/gcc/riscv64-unknown-elf/9.2.0/rv32im/ilp32/libgcc.a(eqtf2.o)
 .data          0x0000000070000c3c        0x0 /opt/riscv/lib/gcc/riscv64-unknown-elf/9.2.0/rv32im/ilp32/libgcc.a(getf2.o)
 .data          0x0000000070000c3c        0x0 /opt/riscv/lib/gcc/riscv64-unknown-elf/9.2.0/rv32im/ilp32/libgcc.a(letf2.o)
 .data          0x0000000070000c3c        0x0 /opt/riscv/lib/gcc/riscv64-unknown-elf/9.2.0/rv32im/ilp32/libgcc.a(multf3.o)
 .data          0x0000000070000c3c        0x0 /opt/riscv/lib/gcc/riscv64-unknown-elf/9.2.0/rv32im/ilp32/libgcc.a(subtf3.o)
 .data          0x0000000070000c3c        0x0 /opt/riscv/lib/gcc/riscv64-unknown-elf/9.2.0/rv32im/ilp32/libgcc.a(fixtfsi.o)
 .data          0x0000000070000c3c        0x0 /opt/riscv/lib/gcc/riscv64-unknown-elf/9.2.0/rv32im/ilp32/libgcc.a(floatsitf.o)
 .data          0x0000000070000c3c        0x0 /opt/riscv/lib/gcc/riscv64-unknown-elf/9.2.0/rv32im/ilp32/libgcc.a(extenddftf2.o)
 .data          0x0000000070000c3c        0x0 /opt/riscv/lib/gcc/riscv64-unknown-elf/9.2.0/rv32im/ilp32/libgcc.a(trunctfdf2.o)
 .data          0x0000000070000c3c        0x0 /opt/riscv/lib/gcc/riscv64-unknown-elf/9.2.0/rv32im/ilp32/crtend.o
 *(.eh_frame .eh_frame.*)
 .eh_frame      0x0000000070000c3c        0x0 /opt/riscv/lib/gcc/riscv64-unknown-elf/9.2.0/rv32im/ilp32/crtbegin.o
 .eh_frame      0x0000000070000c3c       0x28 /opt/riscv/lib/gcc/riscv64-unknown-elf/9.2.0/rv32im/ilp32/libgcc.a(_divdi3.o)
 .eh_frame      0x0000000070000c64       0x28 /opt/riscv/lib/gcc/riscv64-unknown-elf/9.2.0/rv32im/ilp32/libgcc.a(_udivdi3.o)
 .eh_frame      0x0000000070000c8c       0x28 /opt/riscv/lib/gcc/riscv64-unknown-elf/9.2.0/rv32im/ilp32/libgcc.a(_umoddi3.o)
 .eh_frame      0x0000000070000cb4        0x4 /opt/riscv/lib/gcc/riscv64-unknown-elf/9.2.0/rv32im/ilp32/crtend.o
 *(.eh_frame_hdr .eh_frame_hdr.* .eh_frame_entry .eh_frame_entry.*)
 *(.gcc_except_table .gcc_except_table.*)
 *(.got .got.plt)
                0x0000000070000cb8                __start___libc_subfreeres = .
 *(__libc_subfreeres)
                0x0000000070000cb8                __stop___libc_subfreeres = .
                0x0000000070000cb8                __start___libc_IO_vtables = .
 *(__libc_IO_vtables)
                0x0000000070000cb8                __stop___libc_IO_vtables = .
                0x0000000070000cb8                __start___libc_atexit = .
 *(__libc_atexit)
                0x0000000070000cb8                __stop___libc_atexit = .
                0x0000000070000cb8                __data_end = .
                0x00000000600225a8                __data_load = LOADADDR (.data)

.sdata          0x0000000070000cb8       0xcc ロードアドレス 0x0000000060023250
                0x0000000070000cb8                __sdata_start = .
                0x00000000700014b8                __global_pointer$ = (. + 0x800)
 *(.srodata .srodata.*)
 .srodata.cst8  0x0000000070000cb8       0x98 ../../sysroot/lib/libbmetal_crt.a(vsprintf.c.o)
 .srodata       0x0000000070000d50        0x4 /opt/riscv/lib/gcc/riscv64-unknown-elf/9.2.0/../../../../riscv64-unknown-elf/lib/rv32im/ilp32/libc.a(lib_a-impure.o)
                0x0000000070000d50                _global_impure_ptr
 .srodata.cst8  0x0000000070000d54       0x10 /opt/riscv/lib/gcc/riscv64-unknown-elf/9.2.0/../../../../riscv64-unknown-elf/lib/rv32im/ilp32/libc.a(lib_a-mprec.o)
 *fill*         0x0000000070000d54        0x4 
 .srodata.cst8  0x0000000070000d58        0x8 /opt/riscv/lib/gcc/riscv64-unknown-elf/9.2.0/../../../../riscv64-unknown-elf/lib/rv32im/ilp32/libc.a(lib_a-s_frexp.o)
 *(.sdata .sdata.* .gnu.linkonce.s.*)
 .sdata         0x0000000070000d60        0x4 /opt/riscv/lib/gcc/riscv64-unknown-elf/9.2.0/rv32im/ilp32/crtbegin.o
                0x0000000070000d60                __dso_handle
 .sdata         0x0000000070000d64        0x8 ../../sysroot/lib/libbmetal_crt.a(printk.c.o)
 .sdata         0x0000000070000d6c        0x4 ../../sysroot/lib/libbmetal_crt.a(syscall.c.o)
 .sdata         0x0000000070000d70        0x4 ../../sysroot/lib/libbmetal_crt.a(thread.c.o)
 .sdata         0x0000000070000d74        0x4 ../../sysroot/lib/libbmetal_crt.a(cpu.c.o)
 .sdata         0x0000000070000d78        0x4 /opt/riscv/lib/gcc/riscv64-unknown-elf/9.2.0/../../../../riscv64-unknown-elf/lib/rv32im/ilp32/libc.a(lib_a-impure.o)
                0x0000000070000d78                _impure_ptr
 .sdata         0x0000000070000d7c        0x8 /opt/riscv/lib/gcc/riscv64-unknown-elf/9.2.0/../../../../riscv64-unknown-elf/lib/rv32im/ilp32/libc.a(lib_a-mallocr.o)
                0x0000000070000d7c                __malloc_sbrk_base
                0x0000000070000d80                __malloc_trim_threshold
                0x0000000070000d84                __sdata_end = .
                0x0000000060023250                __sdata_load = LOADADDR (.sdata)
                0x0000000070000d84                PROVIDE (_edata = .)

.sbss           0x0000000070000d84       0x48 ロードアドレス 0x000000006002331c
                0x0000000070000d84                __sbss_start = .
 *(.sbss .sbss.* .gnu.linkonce.sb.*)
 .sbss          0x0000000070000d84        0xc ../../sysroot/lib/libbmetal_crt.a(init.c.o)
 .sbss          0x0000000070000d90        0x8 ../../sysroot/lib/libbmetal_crt.a(printk.c.o)
 .sbss          0x0000000070000d98        0x8 ../../sysroot/lib/libbmetal_crt.a(smp.c.o)
 .sbss          0x0000000070000da0        0x4 ../../sysroot/lib/libbmetal_crt.a(crt.c.o)
                0x0000000070000da0                errno_real
 .sbss          0x0000000070000da4        0x4 ../../sysroot/lib/libbmetal_crt.a(device.c.o)
 .sbss          0x0000000070000da8        0x4 ../../sysroot/lib/libbmetal_crt.a(cpu.c.o)
 .sbss          0x0000000070000dac        0x4 ../../sysroot/lib/libbmetal_crt.a(intc.c.o)
 .sbss          0x0000000070000db0        0x4 ../../sysroot/lib/libbmetal_crt.a(timer.c.o)
 .sbss          0x0000000070000db4        0x4 ../../sysroot/lib/libbmetal_crt.a(uart.c.o)
 .sbss          0x0000000070000db8        0xc /opt/riscv/lib/gcc/riscv64-unknown-elf/9.2.0/../../../../riscv64-unknown-elf/lib/rv32im/ilp32/libc.a(lib_a-mallocr.o)
                0x0000000070000db8                __malloc_max_total_mem
                0x0000000070000dbc                __malloc_max_sbrked_mem
                0x0000000070000dc0                __malloc_top_pad
 .sbss          0x0000000070000dc4        0x4 /opt/riscv/lib/gcc/riscv64-unknown-elf/9.2.0/../../../../riscv64-unknown-elf/lib/rv32im/ilp32/libc.a(lib_a-locale.o)
                0x0000000070000dc4                _PathLocale
 .sbss          0x0000000070000dc8        0x4 /opt/riscv/lib/gcc/riscv64-unknown-elf/9.2.0/../../../../riscv64-unknown-elf/lib/rv32im/ilp32/libgloss.a(sys_sbrk.o)
 *(.scommon)
                0x0000000070000dcc                __sbss_end = .

.bss            0x0000000070000dd0      0x47c ロードアドレス 0x000000006002331c
                0x0000000070000dd0                __bss_start = .
 *(.bss .bss.* .gnu.linkonce.b.*)
 .bss           0x0000000070000dd0        0x0 /opt/riscv/lib/gcc/riscv64-unknown-elf/9.2.0/../../../../riscv64-unknown-elf/lib/rv32im/ilp32/crt0.o
 .bss           0x0000000070000dd0       0x1c /opt/riscv/lib/gcc/riscv64-unknown-elf/9.2.0/rv32im/ilp32/crtbegin.o
 .bss           0x0000000070000dec        0x0 ../../sysroot/lib/libbmetal_crt.a(isr.S.o)
 .bss           0x0000000070000dec        0x0 ../../sysroot/lib/libbmetal_crt.a(start.S.o)
 .bss           0x0000000070000dec        0x0 ../../sysroot/lib/libbmetal_crt.a(switch.S.o)
 .bss           0x0000000070000dec        0x0 ../../sysroot/lib/libbmetal_crt.a(cpu.c.o)
 .bss           0x0000000070000dec       0x70 ../../sysroot/lib/libbmetal_crt.a(intr.c.o)
 .bss           0x0000000070000e5c        0x0 ../../sysroot/lib/libbmetal_crt.a(lock.c.o)
 .bss           0x0000000070000e5c        0x0 ../../sysroot/lib/libbmetal_crt.a(sync.c.o)
 .bss           0x0000000070000e5c        0x0 ../../sysroot/lib/libbmetal_crt.a(thread.c.o)
 .bss           0x0000000070000e5c        0x0 ../../sysroot/lib/libbmetal_crt.a(start.S.o)
 .bss           0x0000000070000e5c        0x0 ../../sysroot/lib/libbmetal_crt.a(soc.c.o)
 *fill*         0x0000000070000e5c        0x4 
 .bss           0x0000000070000e60       0x10 ../../sysroot/lib/libbmetal_crt.a(clock.c.o)
 .bss           0x0000000070000e70       0xa0 ../../sysroot/lib/libbmetal_crt.a(event.c.o)
 .bss           0x0000000070000f10        0x0 ../../sysroot/lib/libbmetal_crt.a(file.c.o)
 .bss           0x0000000070000f10        0x0 ../../sysroot/lib/libbmetal_crt.a(fini.c.o)
 .bss           0x0000000070000f10       0x10 ../../sysroot/lib/libbmetal_crt.a(init.c.o)
 .bss           0x0000000070000f20        0x0 ../../sysroot/lib/libbmetal_crt.a(intr.c.o)
 .bss           0x0000000070000f20        0x0 ../../sysroot/lib/libbmetal_crt.a(lock.c.o)
 .bss           0x0000000070000f20        0x0 ../../sysroot/lib/libbmetal_crt.a(printk.c.o)
 .bss           0x0000000070000f20        0x0 ../../sysroot/lib/libbmetal_crt.a(smp.c.o)
 .bss           0x0000000070000f20        0x0 ../../sysroot/lib/libbmetal_crt.a(syscall.c.o)
 .bss           0x0000000070000f20      0x1a4 ../../sysroot/lib/libbmetal_crt.a(thread.c.o)
 .bss           0x00000000700010c4        0x0 ../../sysroot/lib/libbmetal_crt.a(vsprintf.c.o)
 .bss           0x00000000700010c4        0x0 ../../sysroot/lib/libbmetal_crt.a(crt.c.o)
 .bss           0x00000000700010c4        0x0 ../../sysroot/lib/libbmetal_crt.a(support.c.o)
 .bss           0x00000000700010c4        0x0 ../../sysroot/lib/libbmetal_crt.a(string.c.o)
 .bss           0x00000000700010c4      0x150 ../../sysroot/lib/libbmetal_crt.a(board.c.o)
 .bss           0x0000000070001214        0x0 ../../sysroot/lib/libbmetal_crt.a(device.c.o)
 .bss           0x0000000070001214        0x0 ../../sysroot/lib/libbmetal_crt.a(io.c.o)
 .bss           0x0000000070001214        0x0 ../../sysroot/lib/libbmetal_crt.a(cpu.c.o)
 .bss           0x0000000070001214        0x0 ../../sysroot/lib/libbmetal_crt.a(riscv.c.o)
 .bss           0x0000000070001214        0x0 ../../sysroot/lib/libbmetal_crt.a(clk.c.o)
 .bss           0x0000000070001214        0x0 ../../sysroot/lib/libbmetal_crt.a(clk_fixed.c.o)
 .bss           0x0000000070001214        0x0 ../../sysroot/lib/libbmetal_crt.a(intc.c.o)
 .bss           0x0000000070001214        0x0 ../../sysroot/lib/libbmetal_crt.a(rv_priv.c.o)
 .bss           0x0000000070001214        0x0 ../../sysroot/lib/libbmetal_crt.a(timer.c.o)
 .bss           0x0000000070001214        0x0 ../../sysroot/lib/libbmetal_crt.a(clint_timer.c.o)
 .bss           0x0000000070001214        0x0 ../../sysroot/lib/libbmetal_crt.a(uart.c.o)
 .bss           0x0000000070001214        0x0 ../../sysroot/lib/libbmetal_crt.a(uart_lite.c.o)
 .bss           0x0000000070001214        0x0 /opt/riscv/lib/gcc/riscv64-unknown-elf/9.2.0/../../../../riscv64-unknown-elf/lib/rv32im/ilp32/libc.a(lib_a-atexit.o)
 .bss           0x0000000070001214        0x0 /opt/riscv/lib/gcc/riscv64-unknown-elf/9.2.0/../../../../riscv64-unknown-elf/lib/rv32im/ilp32/libc.a(lib_a-exit.o)
 .bss           0x0000000070001214        0x0 /opt/riscv/lib/gcc/riscv64-unknown-elf/9.2.0/../../../../riscv64-unknown-elf/lib/rv32im/ilp32/libc.a(lib_a-fini.o)
 .bss           0x0000000070001214        0x0 /opt/riscv/lib/gcc/riscv64-unknown-elf/9.2.0/../../../../riscv64-unknown-elf/lib/rv32im/ilp32/libc.a(lib_a-impure.o)
 .bss           0x0000000070001214        0x0 /opt/riscv/lib/gcc/riscv64-unknown-elf/9.2.0/../../../../riscv64-unknown-elf/lib/rv32im/ilp32/libc.a(lib_a-init.o)
 .bss           0x0000000070001214        0x0 /opt/riscv/lib/gcc/riscv64-unknown-elf/9.2.0/../../../../riscv64-unknown-elf/lib/rv32im/ilp32/libc.a(lib_a-memset.o)
 .bss           0x0000000070001214        0x0 /opt/riscv/lib/gcc/riscv64-unknown-elf/9.2.0/../../../../riscv64-unknown-elf/lib/rv32im/ilp32/libc.a(lib_a-__atexit.o)
 .bss           0x0000000070001214        0x0 /opt/riscv/lib/gcc/riscv64-unknown-elf/9.2.0/../../../../riscv64-unknown-elf/lib/rv32im/ilp32/libc.a(lib_a-__call_atexit.o)
 .bss           0x0000000070001214        0x0 akaria_timer.o
 .bss           0x0000000070001214        0x0 main.o
 .bss           0x0000000070001214        0x0 /opt/riscv/lib/gcc/riscv64-unknown-elf/9.2.0/rv32im/ilp32/libgcc.a(_divdi3.o)
 .bss           0x0000000070001214        0x0 /opt/riscv/lib/gcc/riscv64-unknown-elf/9.2.0/rv32im/ilp32/libgcc.a(_udivdi3.o)
 .bss           0x0000000070001214        0x0 /opt/riscv/lib/gcc/riscv64-unknown-elf/9.2.0/rv32im/ilp32/libgcc.a(_umoddi3.o)
 .bss           0x0000000070001214        0x0 /opt/riscv/lib/gcc/riscv64-unknown-elf/9.2.0/rv32im/ilp32/libgcc.a(adddf3.o)
 .bss           0x0000000070001214        0x0 /opt/riscv/lib/gcc/riscv64-unknown-elf/9.2.0/rv32im/ilp32/libgcc.a(divdf3.o)
 .bss           0x0000000070001214        0x0 /opt/riscv/lib/gcc/riscv64-unknown-elf/9.2.0/rv32im/ilp32/libgcc.a(eqdf2.o)
 .bss           0x0000000070001214        0x0 /opt/riscv/lib/gcc/riscv64-unknown-elf/9.2.0/rv32im/ilp32/libgcc.a(gedf2.o)
 .bss           0x0000000070001214        0x0 /opt/riscv/lib/gcc/riscv64-unknown-elf/9.2.0/rv32im/ilp32/libgcc.a(ledf2.o)
 .bss           0x0000000070001214        0x0 /opt/riscv/lib/gcc/riscv64-unknown-elf/9.2.0/rv32im/ilp32/libgcc.a(muldf3.o)
 .bss           0x0000000070001214        0x0 /opt/riscv/lib/gcc/riscv64-unknown-elf/9.2.0/rv32im/ilp32/libgcc.a(subdf3.o)
 .bss           0x0000000070001214        0x0 /opt/riscv/lib/gcc/riscv64-unknown-elf/9.2.0/rv32im/ilp32/libgcc.a(fixdfsi.o)
 .bss           0x0000000070001214        0x0 /opt/riscv/lib/gcc/riscv64-unknown-elf/9.2.0/rv32im/ilp32/libgcc.a(fixunsdfsi.o)
 .bss           0x0000000070001214        0x0 /opt/riscv/lib/gcc/riscv64-unknown-elf/9.2.0/rv32im/ilp32/libgcc.a(floatsidf.o)
 .bss           0x0000000070001214        0x0 /opt/riscv/lib/gcc/riscv64-unknown-elf/9.2.0/rv32im/ilp32/libgcc.a(floatunsidf.o)
 .bss           0x0000000070001214        0x0 /opt/riscv/lib/gcc/riscv64-unknown-elf/9.2.0/rv32im/ilp32/libgcc.a(_clz.o)
 .bss           0x0000000070001214        0x0 /opt/riscv/lib/gcc/riscv64-unknown-elf/9.2.0/rv32im/ilp32/libgcc.a(_clzsi2.o)
 .bss           0x0000000070001214        0x0 /opt/riscv/lib/gcc/riscv64-unknown-elf/9.2.0/../../../../riscv64-unknown-elf/lib/rv32im/ilp32/libc.a(lib_a-printf.o)
 .bss           0x0000000070001214        0x0 /opt/riscv/lib/gcc/riscv64-unknown-elf/9.2.0/../../../../riscv64-unknown-elf/lib/rv32im/ilp32/libc.a(lib_a-vfprintf.o)
 .bss           0x0000000070001214        0x0 /opt/riscv/lib/gcc/riscv64-unknown-elf/9.2.0/../../../../riscv64-unknown-elf/lib/rv32im/ilp32/libc.a(lib_a-wsetup.o)
 .bss           0x0000000070001214        0x0 /opt/riscv/lib/gcc/riscv64-unknown-elf/9.2.0/../../../../riscv64-unknown-elf/lib/rv32im/ilp32/libc.a(lib_a-fflush.o)
 .bss           0x0000000070001214        0x0 /opt/riscv/lib/gcc/riscv64-unknown-elf/9.2.0/../../../../riscv64-unknown-elf/lib/rv32im/ilp32/libc.a(lib_a-findfp.o)
 .bss           0x0000000070001214        0x0 /opt/riscv/lib/gcc/riscv64-unknown-elf/9.2.0/../../../../riscv64-unknown-elf/lib/rv32im/ilp32/libc.a(lib_a-freer.o)
 .bss           0x0000000070001214        0x0 /opt/riscv/lib/gcc/riscv64-unknown-elf/9.2.0/../../../../riscv64-unknown-elf/lib/rv32im/ilp32/libc.a(lib_a-fwalk.o)
 .bss           0x0000000070001214        0x0 /opt/riscv/lib/gcc/riscv64-unknown-elf/9.2.0/../../../../riscv64-unknown-elf/lib/rv32im/ilp32/libc.a(lib_a-ldtoa.o)
 .bss           0x0000000070001214        0x0 /opt/riscv/lib/gcc/riscv64-unknown-elf/9.2.0/../../../../riscv64-unknown-elf/lib/rv32im/ilp32/libc.a(lib_a-localeconv.o)
 .bss           0x0000000070001214        0x0 /opt/riscv/lib/gcc/riscv64-unknown-elf/9.2.0/../../../../riscv64-unknown-elf/lib/rv32im/ilp32/libc.a(lib_a-makebuf.o)
 .bss           0x0000000070001214       0x28 /opt/riscv/lib/gcc/riscv64-unknown-elf/9.2.0/../../../../riscv64-unknown-elf/lib/rv32im/ilp32/libc.a(lib_a-mallocr.o)
                0x0000000070001214                __malloc_current_mallinfo
 .bss           0x000000007000123c        0x0 /opt/riscv/lib/gcc/riscv64-unknown-elf/9.2.0/../../../../riscv64-unknown-elf/lib/rv32im/ilp32/libc.a(lib_a-memchr.o)
 .bss           0x000000007000123c        0x0 /opt/riscv/lib/gcc/riscv64-unknown-elf/9.2.0/../../../../riscv64-unknown-elf/lib/rv32im/ilp32/libc.a(lib_a-mlock.o)
 .bss           0x000000007000123c        0x0 /opt/riscv/lib/gcc/riscv64-unknown-elf/9.2.0/../../../../riscv64-unknown-elf/lib/rv32im/ilp32/libc.a(lib_a-mprec.o)
 .bss           0x000000007000123c        0x0 /opt/riscv/lib/gcc/riscv64-unknown-elf/9.2.0/../../../../riscv64-unknown-elf/lib/rv32im/ilp32/libc.a(lib_a-s_frexp.o)
 .bss           0x000000007000123c        0x0 /opt/riscv/lib/gcc/riscv64-unknown-elf/9.2.0/../../../../riscv64-unknown-elf/lib/rv32im/ilp32/libc.a(lib_a-sbrkr.o)
 .bss           0x000000007000123c        0x0 /opt/riscv/lib/gcc/riscv64-unknown-elf/9.2.0/../../../../riscv64-unknown-elf/lib/rv32im/ilp32/libc.a(lib_a-sprintf.o)
 .bss           0x000000007000123c        0x0 /opt/riscv/lib/gcc/riscv64-unknown-elf/9.2.0/../../../../riscv64-unknown-elf/lib/rv32im/ilp32/libc.a(lib_a-stdio.o)
 .bss           0x000000007000123c        0x0 /opt/riscv/lib/gcc/riscv64-unknown-elf/9.2.0/../../../../riscv64-unknown-elf/lib/rv32im/ilp32/libc.a(lib_a-strcpy.o)
 .bss           0x000000007000123c        0x0 /opt/riscv/lib/gcc/riscv64-unknown-elf/9.2.0/../../../../riscv64-unknown-elf/lib/rv32im/ilp32/libc.a(lib_a-strlen.o)
 .bss           0x000000007000123c        0x0 /opt/riscv/lib/gcc/riscv64-unknown-elf/9.2.0/../../../../riscv64-unknown-elf/lib/rv32im/ilp32/libc.a(lib_a-strncpy.o)
 .bss           0x000000007000123c        0x0 /opt/riscv/lib/gcc/riscv64-unknown-elf/9.2.0/../../../../riscv64-unknown-elf/lib/rv32im/ilp32/libc.a(lib_a-svfprintf.o)
 .bss           0x000000007000123c        0x0 /opt/riscv/lib/gcc/riscv64-unknown-elf/9.2.0/../../../../riscv64-unknown-elf/lib/rv32im/ilp32/libc.a(lib_a-vfiprintf.o)
 .bss           0x000000007000123c        0x0 /opt/riscv/lib/gcc/riscv64-unknown-elf/9.2.0/../../../../riscv64-unknown-elf/lib/rv32im/ilp32/libc.a(lib_a-writer.o)
 .bss           0x000000007000123c        0x0 /opt/riscv/lib/gcc/riscv64-unknown-elf/9.2.0/../../../../riscv64-unknown-elf/lib/rv32im/ilp32/libc.a(lib_a-assert.o)
 .bss           0x000000007000123c        0x0 /opt/riscv/lib/gcc/riscv64-unknown-elf/9.2.0/../../../../riscv64-unknown-elf/lib/rv32im/ilp32/libc.a(lib_a-callocr.o)
 .bss           0x000000007000123c        0x0 /opt/riscv/lib/gcc/riscv64-unknown-elf/9.2.0/../../../../riscv64-unknown-elf/lib/rv32im/ilp32/libc.a(lib_a-closer.o)
 .bss           0x000000007000123c        0x0 /opt/riscv/lib/gcc/riscv64-unknown-elf/9.2.0/../../../../riscv64-unknown-elf/lib/rv32im/ilp32/libc.a(lib_a-fclose.o)
 .bss           0x000000007000123c        0x0 /opt/riscv/lib/gcc/riscv64-unknown-elf/9.2.0/../../../../riscv64-unknown-elf/lib/rv32im/ilp32/libc.a(lib_a-fiprintf.o)
 .bss           0x000000007000123c        0x0 /opt/riscv/lib/gcc/riscv64-unknown-elf/9.2.0/../../../../riscv64-unknown-elf/lib/rv32im/ilp32/libc.a(lib_a-fputwc.o)
 .bss           0x000000007000123c        0x0 /opt/riscv/lib/gcc/riscv64-unknown-elf/9.2.0/../../../../riscv64-unknown-elf/lib/rv32im/ilp32/libc.a(lib_a-fstatr.o)
 .bss           0x000000007000123c        0x0 /opt/riscv/lib/gcc/riscv64-unknown-elf/9.2.0/../../../../riscv64-unknown-elf/lib/rv32im/ilp32/libc.a(lib_a-fvwrite.o)
 .bss           0x000000007000123c        0x0 /opt/riscv/lib/gcc/riscv64-unknown-elf/9.2.0/../../../../riscv64-unknown-elf/lib/rv32im/ilp32/libc.a(lib_a-isattyr.o)
 .bss           0x000000007000123c        0x0 /opt/riscv/lib/gcc/riscv64-unknown-elf/9.2.0/../../../../riscv64-unknown-elf/lib/rv32im/ilp32/libc.a(lib_a-locale.o)
 .bss           0x000000007000123c        0x0 /opt/riscv/lib/gcc/riscv64-unknown-elf/9.2.0/../../../../riscv64-unknown-elf/lib/rv32im/ilp32/libc.a(lib_a-lseekr.o)
 .bss           0x000000007000123c        0x0 /opt/riscv/lib/gcc/riscv64-unknown-elf/9.2.0/../../../../riscv64-unknown-elf/lib/rv32im/ilp32/libc.a(lib_a-mbtowc_r.o)
 .bss           0x000000007000123c        0x0 /opt/riscv/lib/gcc/riscv64-unknown-elf/9.2.0/../../../../riscv64-unknown-elf/lib/rv32im/ilp32/libc.a(lib_a-memcpy.o)
 .bss           0x000000007000123c        0x0 /opt/riscv/lib/gcc/riscv64-unknown-elf/9.2.0/../../../../riscv64-unknown-elf/lib/rv32im/ilp32/libc.a(lib_a-memmove-stub.o)
 .bss           0x000000007000123c        0x0 /opt/riscv/lib/gcc/riscv64-unknown-elf/9.2.0/../../../../riscv64-unknown-elf/lib/rv32im/ilp32/libc.a(lib_a-readr.o)
 .bss           0x000000007000123c        0x0 /opt/riscv/lib/gcc/riscv64-unknown-elf/9.2.0/../../../../riscv64-unknown-elf/lib/rv32im/ilp32/libc.a(lib_a-reallocr.o)
 .bss           0x000000007000123c        0x0 /opt/riscv/lib/gcc/riscv64-unknown-elf/9.2.0/../../../../riscv64-unknown-elf/lib/rv32im/ilp32/libc.a(lib_a-reent.o)
 .bss           0x000000007000123c        0x0 /opt/riscv/lib/gcc/riscv64-unknown-elf/9.2.0/../../../../riscv64-unknown-elf/lib/rv32im/ilp32/libc.a(lib_a-strcmp.o)
 .bss           0x000000007000123c        0x0 /opt/riscv/lib/gcc/riscv64-unknown-elf/9.2.0/../../../../riscv64-unknown-elf/lib/rv32im/ilp32/libc.a(lib_a-svfiprintf.o)
 .bss           0x000000007000123c        0x0 /opt/riscv/lib/gcc/riscv64-unknown-elf/9.2.0/../../../../riscv64-unknown-elf/lib/rv32im/ilp32/libc.a(lib_a-wbuf.o)
 .bss           0x000000007000123c        0x0 /opt/riscv/lib/gcc/riscv64-unknown-elf/9.2.0/../../../../riscv64-unknown-elf/lib/rv32im/ilp32/libc.a(lib_a-wcrtomb.o)
 .bss           0x000000007000123c        0x0 /opt/riscv/lib/gcc/riscv64-unknown-elf/9.2.0/../../../../riscv64-unknown-elf/lib/rv32im/ilp32/libc.a(lib_a-wctomb_r.o)
 .bss           0x000000007000123c        0x0 /opt/riscv/lib/gcc/riscv64-unknown-elf/9.2.0/../../../../riscv64-unknown-elf/lib/rv32im/ilp32/libc.a(lib_a-abort.o)
 .bss           0x000000007000123c        0x0 /opt/riscv/lib/gcc/riscv64-unknown-elf/9.2.0/../../../../riscv64-unknown-elf/lib/rv32im/ilp32/libc.a(lib_a-ctype_.o)
 .bss           0x000000007000123c        0x0 /opt/riscv/lib/gcc/riscv64-unknown-elf/9.2.0/../../../../riscv64-unknown-elf/lib/rv32im/ilp32/libc.a(lib_a-signal.o)
 .bss           0x000000007000123c        0x0 /opt/riscv/lib/gcc/riscv64-unknown-elf/9.2.0/../../../../riscv64-unknown-elf/lib/rv32im/ilp32/libc.a(lib_a-signalr.o)
 .bss           0x000000007000123c        0x0 /opt/riscv/lib/gcc/riscv64-unknown-elf/9.2.0/../../../../riscv64-unknown-elf/lib/rv32im/ilp32/libgloss.a(sys_close.o)
 .bss           0x000000007000123c        0x0 /opt/riscv/lib/gcc/riscv64-unknown-elf/9.2.0/../../../../riscv64-unknown-elf/lib/rv32im/ilp32/libgloss.a(sys_exit.o)
 .bss           0x000000007000123c        0x0 /opt/riscv/lib/gcc/riscv64-unknown-elf/9.2.0/../../../../riscv64-unknown-elf/lib/rv32im/ilp32/libgloss.a(sys_fstat.o)
 .bss           0x000000007000123c        0x0 /opt/riscv/lib/gcc/riscv64-unknown-elf/9.2.0/../../../../riscv64-unknown-elf/lib/rv32im/ilp32/libgloss.a(sys_getpid.o)
 .bss           0x000000007000123c        0x0 /opt/riscv/lib/gcc/riscv64-unknown-elf/9.2.0/../../../../riscv64-unknown-elf/lib/rv32im/ilp32/libgloss.a(sys_isatty.o)
 .bss           0x000000007000123c        0x0 /opt/riscv/lib/gcc/riscv64-unknown-elf/9.2.0/../../../../riscv64-unknown-elf/lib/rv32im/ilp32/libgloss.a(sys_kill.o)
 .bss           0x000000007000123c        0x0 /opt/riscv/lib/gcc/riscv64-unknown-elf/9.2.0/../../../../riscv64-unknown-elf/lib/rv32im/ilp32/libgloss.a(sys_lseek.o)
 .bss           0x000000007000123c        0x0 /opt/riscv/lib/gcc/riscv64-unknown-elf/9.2.0/../../../../riscv64-unknown-elf/lib/rv32im/ilp32/libgloss.a(sys_read.o)
 .bss           0x000000007000123c        0x0 /opt/riscv/lib/gcc/riscv64-unknown-elf/9.2.0/../../../../riscv64-unknown-elf/lib/rv32im/ilp32/libgloss.a(sys_sbrk.o)
 .bss           0x000000007000123c        0x0 /opt/riscv/lib/gcc/riscv64-unknown-elf/9.2.0/../../../../riscv64-unknown-elf/lib/rv32im/ilp32/libgloss.a(sys_write.o)
 .bss           0x000000007000123c        0x0 /opt/riscv/lib/gcc/riscv64-unknown-elf/9.2.0/../../../../riscv64-unknown-elf/lib/rv32im/ilp32/libgloss.a(sys_conv_stat.o)
 .bss           0x000000007000123c        0x0 /opt/riscv/lib/gcc/riscv64-unknown-elf/9.2.0/rv32im/ilp32/libgcc.a(eqtf2.o)
 .bss           0x000000007000123c        0x0 /opt/riscv/lib/gcc/riscv64-unknown-elf/9.2.0/rv32im/ilp32/libgcc.a(getf2.o)
 .bss           0x000000007000123c        0x0 /opt/riscv/lib/gcc/riscv64-unknown-elf/9.2.0/rv32im/ilp32/libgcc.a(letf2.o)
 .bss           0x000000007000123c        0x0 /opt/riscv/lib/gcc/riscv64-unknown-elf/9.2.0/rv32im/ilp32/libgcc.a(multf3.o)
 .bss           0x000000007000123c        0x0 /opt/riscv/lib/gcc/riscv64-unknown-elf/9.2.0/rv32im/ilp32/libgcc.a(subtf3.o)
 .bss           0x000000007000123c        0x0 /opt/riscv/lib/gcc/riscv64-unknown-elf/9.2.0/rv32im/ilp32/libgcc.a(fixtfsi.o)
 .bss           0x000000007000123c        0x0 /opt/riscv/lib/gcc/riscv64-unknown-elf/9.2.0/rv32im/ilp32/libgcc.a(floatsitf.o)
 .bss           0x000000007000123c        0x0 /opt/riscv/lib/gcc/riscv64-unknown-elf/9.2.0/rv32im/ilp32/libgcc.a(extenddftf2.o)
 .bss           0x000000007000123c        0x0 /opt/riscv/lib/gcc/riscv64-unknown-elf/9.2.0/rv32im/ilp32/libgcc.a(trunctfdf2.o)
 .bss           0x000000007000123c        0x0 /opt/riscv/lib/gcc/riscv64-unknown-elf/9.2.0/rv32im/ilp32/crtend.o
 *(COMMON)
 COMMON         0x000000007000123c        0xc ../../sysroot/lib/libbmetal_crt.a(riscv.c.o)
                0x000000007000123c                __boot_done
                0x0000000070001240                __boot_sp_intr
                0x0000000070001244                __boot_sp_idle
 COMMON         0x0000000070001248        0x4 /opt/riscv/lib/gcc/riscv64-unknown-elf/9.2.0/../../../../riscv64-unknown-elf/lib/rv32im/ilp32/libc.a(lib_a-reent.o)
                0x0000000070001248                errno
 *(__libc_freeres_ptrs)
                0x000000007000124c                __bss_end = .

.noinit         0x0000000070001250     0x4004 ロードアドレス 0x000000006002331c
 *(.noinit .noinit.*)
 .noinit        0x0000000070001250     0x2000 ../../sysroot/lib/libbmetal_crt.a(init.c.o)
                0x0000000070001250                __stack_main
                0x0000000070002250                __stack_idle
                0x0000000070002a50                __stack_intr
 .noinit        0x0000000070003250     0x2000 ../../sysroot/lib/libbmetal_crt.a(syscall.c.o)
 .noinit        0x0000000070005250        0x4 ../../sysroot/lib/libbmetal_crt.a(riscv.c.o)
                0x0000000070005250                __boot_proc

.comm_area      0x000000007000fc00      0x400
                0x000000007000fc00                . = ALIGN (0x8)
                0x000000007000fc00                PROVIDE (__comm_area = .)
                0x0000000070010000                . = (. + 0x400)
 *fill*         0x000000007000fc00      0x400 
                0x0000000070010000                PROVIDE (_end = .)
LOAD ../../sysroot/lib/libbmetal_crt.a
LOAD /opt/riscv/lib/gcc/riscv64-unknown-elf/9.2.0/../../../../riscv64-unknown-elf/lib/rv32im/ilp32/libc.a
LOAD akaria_timer.o
LOAD main.o
LOAD /opt/riscv/lib/gcc/riscv64-unknown-elf/9.2.0/rv32im/ilp32/libgcc.a
START GROUP
LOAD /opt/riscv/lib/gcc/riscv64-unknown-elf/9.2.0/../../../../riscv64-unknown-elf/lib/rv32im/ilp32/libc.a
LOAD /opt/riscv/lib/gcc/riscv64-unknown-elf/9.2.0/../../../../riscv64-unknown-elf/lib/rv32im/ilp32/libgloss.a
END GROUP
LOAD /opt/riscv/lib/gcc/riscv64-unknown-elf/9.2.0/rv32im/ilp32/libgcc.a
LOAD /opt/riscv/lib/gcc/riscv64-unknown-elf/9.2.0/rv32im/ilp32/crtend.o
OUTPUT(akaria_ns_bsp.elf elf32-littleriscv)

.riscv.attributes
                0x0000000000000000       0x26
 .riscv.attributes
                0x0000000000000000       0x1f /opt/riscv/lib/gcc/riscv64-unknown-elf/9.2.0/../../../../riscv64-unknown-elf/lib/rv32im/ilp32/crt0.o
 .riscv.attributes
                0x000000000000001f       0x21 /opt/riscv/lib/gcc/riscv64-unknown-elf/9.2.0/rv32im/ilp32/crtbegin.o
 .riscv.attributes
                0x0000000000000040       0x24 ../../sysroot/lib/libbmetal_crt.a(isr.S.o)
 .riscv.attributes
                0x0000000000000064       0x24 ../../sysroot/lib/libbmetal_crt.a(start.S.o)
 .riscv.attributes
                0x0000000000000088       0x24 ../../sysroot/lib/libbmetal_crt.a(switch.S.o)
 .riscv.attributes
                0x00000000000000ac       0x26 ../../sysroot/lib/libbmetal_crt.a(cpu.c.o)
 .riscv.attributes
                0x00000000000000d2       0x26 ../../sysroot/lib/libbmetal_crt.a(intr.c.o)
 .riscv.attributes
                0x00000000000000f8       0x26 ../../sysroot/lib/libbmetal_crt.a(lock.c.o)
 .riscv.attributes
                0x000000000000011e       0x26 ../../sysroot/lib/libbmetal_crt.a(sync.c.o)
 .riscv.attributes
                0x0000000000000144       0x26 ../../sysroot/lib/libbmetal_crt.a(thread.c.o)
 .riscv.attributes
                0x000000000000016a       0x24 ../../sysroot/lib/libbmetal_crt.a(start.S.o)
 .riscv.attributes
                0x000000000000018e       0x26 ../../sysroot/lib/libbmetal_crt.a(soc.c.o)
 .riscv.attributes
                0x00000000000001b4       0x26 ../../sysroot/lib/libbmetal_crt.a(clock.c.o)
 .riscv.attributes
                0x00000000000001da       0x26 ../../sysroot/lib/libbmetal_crt.a(event.c.o)
 .riscv.attributes
                0x0000000000000200       0x26 ../../sysroot/lib/libbmetal_crt.a(file.c.o)
 .riscv.attributes
                0x0000000000000226       0x26 ../../sysroot/lib/libbmetal_crt.a(fini.c.o)
 .riscv.attributes
                0x000000000000024c       0x26 ../../sysroot/lib/libbmetal_crt.a(init.c.o)
 .riscv.attributes
                0x0000000000000272       0x26 ../../sysroot/lib/libbmetal_crt.a(intr.c.o)
 .riscv.attributes
                0x0000000000000298       0x26 ../../sysroot/lib/libbmetal_crt.a(lock.c.o)
 .riscv.attributes
                0x00000000000002be       0x26 ../../sysroot/lib/libbmetal_crt.a(printk.c.o)
 .riscv.attributes
                0x00000000000002e4       0x26 ../../sysroot/lib/libbmetal_crt.a(smp.c.o)
 .riscv.attributes
                0x000000000000030a       0x26 ../../sysroot/lib/libbmetal_crt.a(syscall.c.o)
 .riscv.attributes
                0x0000000000000330       0x26 ../../sysroot/lib/libbmetal_crt.a(thread.c.o)
 .riscv.attributes
                0x0000000000000356       0x26 ../../sysroot/lib/libbmetal_crt.a(vsprintf.c.o)
 .riscv.attributes
                0x000000000000037c       0x26 ../../sysroot/lib/libbmetal_crt.a(crt.c.o)
 .riscv.attributes
                0x00000000000003a2       0x26 ../../sysroot/lib/libbmetal_crt.a(support.c.o)
 .riscv.attributes
                0x00000000000003c8       0x26 ../../sysroot/lib/libbmetal_crt.a(string.c.o)
 .riscv.attributes
                0x00000000000003ee       0x26 ../../sysroot/lib/libbmetal_crt.a(board.c.o)
 .riscv.attributes
                0x0000000000000414       0x26 ../../sysroot/lib/libbmetal_crt.a(device.c.o)
 .riscv.attributes
                0x000000000000043a       0x26 ../../sysroot/lib/libbmetal_crt.a(io.c.o)
 .riscv.attributes
                0x0000000000000460       0x26 ../../sysroot/lib/libbmetal_crt.a(cpu.c.o)
 .riscv.attributes
                0x0000000000000486       0x26 ../../sysroot/lib/libbmetal_crt.a(riscv.c.o)
 .riscv.attributes
                0x00000000000004ac       0x26 ../../sysroot/lib/libbmetal_crt.a(clk.c.o)
 .riscv.attributes
                0x00000000000004d2       0x26 ../../sysroot/lib/libbmetal_crt.a(clk_fixed.c.o)
 .riscv.attributes
                0x00000000000004f8       0x26 ../../sysroot/lib/libbmetal_crt.a(intc.c.o)
 .riscv.attributes
                0x000000000000051e       0x26 ../../sysroot/lib/libbmetal_crt.a(rv_priv.c.o)
 .riscv.attributes
                0x0000000000000544       0x26 ../../sysroot/lib/libbmetal_crt.a(timer.c.o)
 .riscv.attributes
                0x000000000000056a       0x26 ../../sysroot/lib/libbmetal_crt.a(clint_timer.c.o)
 .riscv.attributes
                0x0000000000000590       0x26 ../../sysroot/lib/libbmetal_crt.a(uart.c.o)
 .riscv.attributes
                0x00000000000005b6       0x26 ../../sysroot/lib/libbmetal_crt.a(uart_lite.c.o)
 .riscv.attributes
                0x00000000000005dc       0x21 /opt/riscv/lib/gcc/riscv64-unknown-elf/9.2.0/../../../../riscv64-unknown-elf/lib/rv32im/ilp32/libc.a(lib_a-atexit.o)
 .riscv.attributes
                0x00000000000005fd       0x21 /opt/riscv/lib/gcc/riscv64-unknown-elf/9.2.0/../../../../riscv64-unknown-elf/lib/rv32im/ilp32/libc.a(lib_a-exit.o)
 .riscv.attributes
                0x000000000000061e       0x21 /opt/riscv/lib/gcc/riscv64-unknown-elf/9.2.0/../../../../riscv64-unknown-elf/lib/rv32im/ilp32/libc.a(lib_a-fini.o)
 .riscv.attributes
                0x000000000000063f       0x21 /opt/riscv/lib/gcc/riscv64-unknown-elf/9.2.0/../../../../riscv64-unknown-elf/lib/rv32im/ilp32/libc.a(lib_a-impure.o)
 .riscv.attributes
                0x0000000000000660       0x21 /opt/riscv/lib/gcc/riscv64-unknown-elf/9.2.0/../../../../riscv64-unknown-elf/lib/rv32im/ilp32/libc.a(lib_a-init.o)
 .riscv.attributes
                0x0000000000000681       0x1f /opt/riscv/lib/gcc/riscv64-unknown-elf/9.2.0/../../../../riscv64-unknown-elf/lib/rv32im/ilp32/libc.a(lib_a-memset.o)
 .riscv.attributes
                0x00000000000006a0       0x21 /opt/riscv/lib/gcc/riscv64-unknown-elf/9.2.0/../../../../riscv64-unknown-elf/lib/rv32im/ilp32/libc.a(lib_a-__atexit.o)
 .riscv.attributes
                0x00000000000006c1       0x21 /opt/riscv/lib/gcc/riscv64-unknown-elf/9.2.0/../../../../riscv64-unknown-elf/lib/rv32im/ilp32/libc.a(lib_a-__call_atexit.o)
 .riscv.attributes
                0x00000000000006e2       0x21 akaria_timer.o
 .riscv.attributes
                0x0000000000000703       0x21 main.o
 .riscv.attributes
                0x0000000000000724       0x21 /opt/riscv/lib/gcc/riscv64-unknown-elf/9.2.0/rv32im/ilp32/libgcc.a(_divdi3.o)
 .riscv.attributes
                0x0000000000000745       0x21 /opt/riscv/lib/gcc/riscv64-unknown-elf/9.2.0/rv32im/ilp32/libgcc.a(_udivdi3.o)
 .riscv.attributes
                0x0000000000000766       0x21 /opt/riscv/lib/gcc/riscv64-unknown-elf/9.2.0/rv32im/ilp32/libgcc.a(_umoddi3.o)
 .riscv.attributes
                0x0000000000000787       0x21 /opt/riscv/lib/gcc/riscv64-unknown-elf/9.2.0/rv32im/ilp32/libgcc.a(adddf3.o)
 .riscv.attributes
                0x00000000000007a8       0x21 /opt/riscv/lib/gcc/riscv64-unknown-elf/9.2.0/rv32im/ilp32/libgcc.a(divdf3.o)
 .riscv.attributes
                0x00000000000007c9       0x21 /opt/riscv/lib/gcc/riscv64-unknown-elf/9.2.0/rv32im/ilp32/libgcc.a(eqdf2.o)
 .riscv.attributes
                0x00000000000007ea       0x21 /opt/riscv/lib/gcc/riscv64-unknown-elf/9.2.0/rv32im/ilp32/libgcc.a(gedf2.o)
 .riscv.attributes
                0x000000000000080b       0x21 /opt/riscv/lib/gcc/riscv64-unknown-elf/9.2.0/rv32im/ilp32/libgcc.a(ledf2.o)
 .riscv.attributes
                0x000000000000082c       0x21 /opt/riscv/lib/gcc/riscv64-unknown-elf/9.2.0/rv32im/ilp32/libgcc.a(muldf3.o)
 .riscv.attributes
                0x000000000000084d       0x21 /opt/riscv/lib/gcc/riscv64-unknown-elf/9.2.0/rv32im/ilp32/libgcc.a(subdf3.o)
 .riscv.attributes
                0x000000000000086e       0x21 /opt/riscv/lib/gcc/riscv64-unknown-elf/9.2.0/rv32im/ilp32/libgcc.a(fixdfsi.o)
 .riscv.attributes
                0x000000000000088f       0x21 /opt/riscv/lib/gcc/riscv64-unknown-elf/9.2.0/rv32im/ilp32/libgcc.a(fixunsdfsi.o)
 .riscv.attributes
                0x00000000000008b0       0x21 /opt/riscv/lib/gcc/riscv64-unknown-elf/9.2.0/rv32im/ilp32/libgcc.a(floatsidf.o)
 .riscv.attributes
                0x00000000000008d1       0x21 /opt/riscv/lib/gcc/riscv64-unknown-elf/9.2.0/rv32im/ilp32/libgcc.a(floatunsidf.o)
 .riscv.attributes
                0x00000000000008f2       0x21 /opt/riscv/lib/gcc/riscv64-unknown-elf/9.2.0/rv32im/ilp32/libgcc.a(_clz.o)
 .riscv.attributes
                0x0000000000000913       0x21 /opt/riscv/lib/gcc/riscv64-unknown-elf/9.2.0/rv32im/ilp32/libgcc.a(_clzsi2.o)
 .riscv.attributes
                0x0000000000000934       0x21 /opt/riscv/lib/gcc/riscv64-unknown-elf/9.2.0/../../../../riscv64-unknown-elf/lib/rv32im/ilp32/libc.a(lib_a-printf.o)
 .riscv.attributes
                0x0000000000000955       0x21 /opt/riscv/lib/gcc/riscv64-unknown-elf/9.2.0/../../../../riscv64-unknown-elf/lib/rv32im/ilp32/libc.a(lib_a-vfprintf.o)
 .riscv.attributes
                0x0000000000000976       0x21 /opt/riscv/lib/gcc/riscv64-unknown-elf/9.2.0/../../../../riscv64-unknown-elf/lib/rv32im/ilp32/libc.a(lib_a-wsetup.o)
 .riscv.attributes
                0x0000000000000997       0x21 /opt/riscv/lib/gcc/riscv64-unknown-elf/9.2.0/../../../../riscv64-unknown-elf/lib/rv32im/ilp32/libc.a(lib_a-fflush.o)
 .riscv.attributes
                0x00000000000009b8       0x21 /opt/riscv/lib/gcc/riscv64-unknown-elf/9.2.0/../../../../riscv64-unknown-elf/lib/rv32im/ilp32/libc.a(lib_a-findfp.o)
 .riscv.attributes
                0x00000000000009d9       0x21 /opt/riscv/lib/gcc/riscv64-unknown-elf/9.2.0/../../../../riscv64-unknown-elf/lib/rv32im/ilp32/libc.a(lib_a-freer.o)
 .riscv.attributes
                0x00000000000009fa       0x21 /opt/riscv/lib/gcc/riscv64-unknown-elf/9.2.0/../../../../riscv64-unknown-elf/lib/rv32im/ilp32/libc.a(lib_a-fwalk.o)
 .riscv.attributes
                0x0000000000000a1b       0x21 /opt/riscv/lib/gcc/riscv64-unknown-elf/9.2.0/../../../../riscv64-unknown-elf/lib/rv32im/ilp32/libc.a(lib_a-ldtoa.o)
 .riscv.attributes
                0x0000000000000a3c       0x21 /opt/riscv/lib/gcc/riscv64-unknown-elf/9.2.0/../../../../riscv64-unknown-elf/lib/rv32im/ilp32/libc.a(lib_a-localeconv.o)
 .riscv.attributes
                0x0000000000000a5d       0x21 /opt/riscv/lib/gcc/riscv64-unknown-elf/9.2.0/../../../../riscv64-unknown-elf/lib/rv32im/ilp32/libc.a(lib_a-makebuf.o)
 .riscv.attributes
                0x0000000000000a7e       0x21 /opt/riscv/lib/gcc/riscv64-unknown-elf/9.2.0/../../../../riscv64-unknown-elf/lib/rv32im/ilp32/libc.a(lib_a-mallocr.o)
 .riscv.attributes
                0x0000000000000a9f       0x21 /opt/riscv/lib/gcc/riscv64-unknown-elf/9.2.0/../../../../riscv64-unknown-elf/lib/rv32im/ilp32/libc.a(lib_a-memchr.o)
 .riscv.attributes
                0x0000000000000ac0       0x21 /opt/riscv/lib/gcc/riscv64-unknown-elf/9.2.0/../../../../riscv64-unknown-elf/lib/rv32im/ilp32/libc.a(lib_a-mlock.o)
 .riscv.attributes
                0x0000000000000ae1       0x21 /opt/riscv/lib/gcc/riscv64-unknown-elf/9.2.0/../../../../riscv64-unknown-elf/lib/rv32im/ilp32/libc.a(lib_a-mprec.o)
 .riscv.attributes
                0x0000000000000b02       0x21 /opt/riscv/lib/gcc/riscv64-unknown-elf/9.2.0/../../../../riscv64-unknown-elf/lib/rv32im/ilp32/libc.a(lib_a-s_frexp.o)
 .riscv.attributes
                0x0000000000000b23       0x21 /opt/riscv/lib/gcc/riscv64-unknown-elf/9.2.0/../../../../riscv64-unknown-elf/lib/rv32im/ilp32/libc.a(lib_a-sbrkr.o)
 .riscv.attributes
                0x0000000000000b44       0x21 /opt/riscv/lib/gcc/riscv64-unknown-elf/9.2.0/../../../../riscv64-unknown-elf/lib/rv32im/ilp32/libc.a(lib_a-sprintf.o)
 .riscv.attributes
                0x0000000000000b65       0x21 /opt/riscv/lib/gcc/riscv64-unknown-elf/9.2.0/../../../../riscv64-unknown-elf/lib/rv32im/ilp32/libc.a(lib_a-stdio.o)
 .riscv.attributes
                0x0000000000000b86       0x21 /opt/riscv/lib/gcc/riscv64-unknown-elf/9.2.0/../../../../riscv64-unknown-elf/lib/rv32im/ilp32/libc.a(lib_a-strcpy.o)
 .riscv.attributes
                0x0000000000000ba7       0x21 /opt/riscv/lib/gcc/riscv64-unknown-elf/9.2.0/../../../../riscv64-unknown-elf/lib/rv32im/ilp32/libc.a(lib_a-strlen.o)
 .riscv.attributes
                0x0000000000000bc8       0x21 /opt/riscv/lib/gcc/riscv64-unknown-elf/9.2.0/../../../../riscv64-unknown-elf/lib/rv32im/ilp32/libc.a(lib_a-strncpy.o)
 .riscv.attributes
                0x0000000000000be9       0x21 /opt/riscv/lib/gcc/riscv64-unknown-elf/9.2.0/../../../../riscv64-unknown-elf/lib/rv32im/ilp32/libc.a(lib_a-svfprintf.o)
 .riscv.attributes
                0x0000000000000c0a       0x21 /opt/riscv/lib/gcc/riscv64-unknown-elf/9.2.0/../../../../riscv64-unknown-elf/lib/rv32im/ilp32/libc.a(lib_a-vfiprintf.o)
 .riscv.attributes
                0x0000000000000c2b       0x21 /opt/riscv/lib/gcc/riscv64-unknown-elf/9.2.0/../../../../riscv64-unknown-elf/lib/rv32im/ilp32/libc.a(lib_a-writer.o)
 .riscv.attributes
                0x0000000000000c4c       0x21 /opt/riscv/lib/gcc/riscv64-unknown-elf/9.2.0/../../../../riscv64-unknown-elf/lib/rv32im/ilp32/libc.a(lib_a-assert.o)
 .riscv.attributes
                0x0000000000000c6d       0x21 /opt/riscv/lib/gcc/riscv64-unknown-elf/9.2.0/../../../../riscv64-unknown-elf/lib/rv32im/ilp32/libc.a(lib_a-callocr.o)
 .riscv.attributes
                0x0000000000000c8e       0x21 /opt/riscv/lib/gcc/riscv64-unknown-elf/9.2.0/../../../../riscv64-unknown-elf/lib/rv32im/ilp32/libc.a(lib_a-closer.o)
 .riscv.attributes
                0x0000000000000caf       0x21 /opt/riscv/lib/gcc/riscv64-unknown-elf/9.2.0/../../../../riscv64-unknown-elf/lib/rv32im/ilp32/libc.a(lib_a-fclose.o)
 .riscv.attributes
                0x0000000000000cd0       0x21 /opt/riscv/lib/gcc/riscv64-unknown-elf/9.2.0/../../../../riscv64-unknown-elf/lib/rv32im/ilp32/libc.a(lib_a-fiprintf.o)
 .riscv.attributes
                0x0000000000000cf1       0x21 /opt/riscv/lib/gcc/riscv64-unknown-elf/9.2.0/../../../../riscv64-unknown-elf/lib/rv32im/ilp32/libc.a(lib_a-fputwc.o)
 .riscv.attributes
                0x0000000000000d12       0x21 /opt/riscv/lib/gcc/riscv64-unknown-elf/9.2.0/../../../../riscv64-unknown-elf/lib/rv32im/ilp32/libc.a(lib_a-fstatr.o)
 .riscv.attributes
                0x0000000000000d33       0x21 /opt/riscv/lib/gcc/riscv64-unknown-elf/9.2.0/../../../../riscv64-unknown-elf/lib/rv32im/ilp32/libc.a(lib_a-fvwrite.o)
 .riscv.attributes
                0x0000000000000d54       0x21 /opt/riscv/lib/gcc/riscv64-unknown-elf/9.2.0/../../../../riscv64-unknown-elf/lib/rv32im/ilp32/libc.a(lib_a-isattyr.o)
 .riscv.attributes
                0x0000000000000d75       0x21 /opt/riscv/lib/gcc/riscv64-unknown-elf/9.2.0/../../../../riscv64-unknown-elf/lib/rv32im/ilp32/libc.a(lib_a-locale.o)
 .riscv.attributes
                0x0000000000000d96       0x21 /opt/riscv/lib/gcc/riscv64-unknown-elf/9.2.0/../../../../riscv64-unknown-elf/lib/rv32im/ilp32/libc.a(lib_a-lseekr.o)
 .riscv.attributes
                0x0000000000000db7       0x21 /opt/riscv/lib/gcc/riscv64-unknown-elf/9.2.0/../../../../riscv64-unknown-elf/lib/rv32im/ilp32/libc.a(lib_a-mbtowc_r.o)
 .riscv.attributes
                0x0000000000000dd8       0x21 /opt/riscv/lib/gcc/riscv64-unknown-elf/9.2.0/../../../../riscv64-unknown-elf/lib/rv32im/ilp32/libc.a(lib_a-memcpy.o)
 .riscv.attributes
                0x0000000000000df9       0x21 /opt/riscv/lib/gcc/riscv64-unknown-elf/9.2.0/../../../../riscv64-unknown-elf/lib/rv32im/ilp32/libc.a(lib_a-memmove-stub.o)
 .riscv.attributes
                0x0000000000000e1a       0x21 /opt/riscv/lib/gcc/riscv64-unknown-elf/9.2.0/../../../../riscv64-unknown-elf/lib/rv32im/ilp32/libc.a(lib_a-readr.o)
 .riscv.attributes
                0x0000000000000e3b       0x21 /opt/riscv/lib/gcc/riscv64-unknown-elf/9.2.0/../../../../riscv64-unknown-elf/lib/rv32im/ilp32/libc.a(lib_a-reallocr.o)
 .riscv.attributes
                0x0000000000000e5c       0x21 /opt/riscv/lib/gcc/riscv64-unknown-elf/9.2.0/../../../../riscv64-unknown-elf/lib/rv32im/ilp32/libc.a(lib_a-reent.o)
 .riscv.attributes
                0x0000000000000e7d       0x1f /opt/riscv/lib/gcc/riscv64-unknown-elf/9.2.0/../../../../riscv64-unknown-elf/lib/rv32im/ilp32/libc.a(lib_a-strcmp.o)
 .riscv.attributes
                0x0000000000000e9c       0x21 /opt/riscv/lib/gcc/riscv64-unknown-elf/9.2.0/../../../../riscv64-unknown-elf/lib/rv32im/ilp32/libc.a(lib_a-svfiprintf.o)
 .riscv.attributes
                0x0000000000000ebd       0x21 /opt/riscv/lib/gcc/riscv64-unknown-elf/9.2.0/../../../../riscv64-unknown-elf/lib/rv32im/ilp32/libc.a(lib_a-wbuf.o)
 .riscv.attributes
                0x0000000000000ede       0x21 /opt/riscv/lib/gcc/riscv64-unknown-elf/9.2.0/../../../../riscv64-unknown-elf/lib/rv32im/ilp32/libc.a(lib_a-wcrtomb.o)
 .riscv.attributes
                0x0000000000000eff       0x21 /opt/riscv/lib/gcc/riscv64-unknown-elf/9.2.0/../../../../riscv64-unknown-elf/lib/rv32im/ilp32/libc.a(lib_a-wctomb_r.o)
 .riscv.attributes
                0x0000000000000f20       0x21 /opt/riscv/lib/gcc/riscv64-unknown-elf/9.2.0/../../../../riscv64-unknown-elf/lib/rv32im/ilp32/libc.a(lib_a-abort.o)
 .riscv.attributes
                0x0000000000000f41       0x21 /opt/riscv/lib/gcc/riscv64-unknown-elf/9.2.0/../../../../riscv64-unknown-elf/lib/rv32im/ilp32/libc.a(lib_a-ctype_.o)
 .riscv.attributes
                0x0000000000000f62       0x21 /opt/riscv/lib/gcc/riscv64-unknown-elf/9.2.0/../../../../riscv64-unknown-elf/lib/rv32im/ilp32/libc.a(lib_a-signal.o)
 .riscv.attributes
                0x0000000000000f83       0x21 /opt/riscv/lib/gcc/riscv64-unknown-elf/9.2.0/../../../../riscv64-unknown-elf/lib/rv32im/ilp32/libc.a(lib_a-signalr.o)
 .riscv.attributes
                0x0000000000000fa4       0x21 /opt/riscv/lib/gcc/riscv64-unknown-elf/9.2.0/../../../../riscv64-unknown-elf/lib/rv32im/ilp32/libgloss.a(sys_close.o)
 .riscv.attributes
                0x0000000000000fc5       0x21 /opt/riscv/lib/gcc/riscv64-unknown-elf/9.2.0/../../../../riscv64-unknown-elf/lib/rv32im/ilp32/libgloss.a(sys_exit.o)
 .riscv.attributes
                0x0000000000000fe6       0x21 /opt/riscv/lib/gcc/riscv64-unknown-elf/9.2.0/../../../../riscv64-unknown-elf/lib/rv32im/ilp32/libgloss.a(sys_fstat.o)
 .riscv.attributes
                0x0000000000001007       0x21 /opt/riscv/lib/gcc/riscv64-unknown-elf/9.2.0/../../../../riscv64-unknown-elf/lib/rv32im/ilp32/libgloss.a(sys_getpid.o)
 .riscv.attributes
                0x0000000000001028       0x21 /opt/riscv/lib/gcc/riscv64-unknown-elf/9.2.0/../../../../riscv64-unknown-elf/lib/rv32im/ilp32/libgloss.a(sys_isatty.o)
 .riscv.attributes
                0x0000000000001049       0x21 /opt/riscv/lib/gcc/riscv64-unknown-elf/9.2.0/../../../../riscv64-unknown-elf/lib/rv32im/ilp32/libgloss.a(sys_kill.o)
 .riscv.attributes
                0x000000000000106a       0x21 /opt/riscv/lib/gcc/riscv64-unknown-elf/9.2.0/../../../../riscv64-unknown-elf/lib/rv32im/ilp32/libgloss.a(sys_lseek.o)
 .riscv.attributes
                0x000000000000108b       0x21 /opt/riscv/lib/gcc/riscv64-unknown-elf/9.2.0/../../../../riscv64-unknown-elf/lib/rv32im/ilp32/libgloss.a(sys_read.o)
 .riscv.attributes
                0x00000000000010ac       0x21 /opt/riscv/lib/gcc/riscv64-unknown-elf/9.2.0/../../../../riscv64-unknown-elf/lib/rv32im/ilp32/libgloss.a(sys_sbrk.o)
 .riscv.attributes
                0x00000000000010cd       0x21 /opt/riscv/lib/gcc/riscv64-unknown-elf/9.2.0/../../../../riscv64-unknown-elf/lib/rv32im/ilp32/libgloss.a(sys_write.o)
 .riscv.attributes
                0x00000000000010ee       0x21 /opt/riscv/lib/gcc/riscv64-unknown-elf/9.2.0/../../../../riscv64-unknown-elf/lib/rv32im/ilp32/libgloss.a(sys_conv_stat.o)
 .riscv.attributes
                0x000000000000110f       0x21 /opt/riscv/lib/gcc/riscv64-unknown-elf/9.2.0/rv32im/ilp32/libgcc.a(eqtf2.o)
 .riscv.attributes
                0x0000000000001130       0x21 /opt/riscv/lib/gcc/riscv64-unknown-elf/9.2.0/rv32im/ilp32/libgcc.a(getf2.o)
 .riscv.attributes
                0x0000000000001151       0x21 /opt/riscv/lib/gcc/riscv64-unknown-elf/9.2.0/rv32im/ilp32/libgcc.a(letf2.o)
 .riscv.attributes
                0x0000000000001172       0x21 /opt/riscv/lib/gcc/riscv64-unknown-elf/9.2.0/rv32im/ilp32/libgcc.a(multf3.o)
 .riscv.attributes
                0x0000000000001193       0x21 /opt/riscv/lib/gcc/riscv64-unknown-elf/9.2.0/rv32im/ilp32/libgcc.a(subtf3.o)
 .riscv.attributes
                0x00000000000011b4       0x21 /opt/riscv/lib/gcc/riscv64-unknown-elf/9.2.0/rv32im/ilp32/libgcc.a(fixtfsi.o)
 .riscv.attributes
                0x00000000000011d5       0x21 /opt/riscv/lib/gcc/riscv64-unknown-elf/9.2.0/rv32im/ilp32/libgcc.a(floatsitf.o)
 .riscv.attributes
                0x00000000000011f6       0x21 /opt/riscv/lib/gcc/riscv64-unknown-elf/9.2.0/rv32im/ilp32/libgcc.a(extenddftf2.o)
 .riscv.attributes
                0x0000000000001217       0x21 /opt/riscv/lib/gcc/riscv64-unknown-elf/9.2.0/rv32im/ilp32/libgcc.a(trunctfdf2.o)
 .riscv.attributes
                0x0000000000001238       0x21 /opt/riscv/lib/gcc/riscv64-unknown-elf/9.2.0/rv32im/ilp32/crtend.o

.comment        0x0000000000000000       0x11
 .comment       0x0000000000000000       0x11 /opt/riscv/lib/gcc/riscv64-unknown-elf/9.2.0/rv32im/ilp32/crtbegin.o
                                         0x12 (緩和前のサイズ)
 .comment       0x0000000000000011       0x12 ../../sysroot/lib/libbmetal_crt.a(cpu.c.o)
 .comment       0x0000000000000011       0x12 ../../sysroot/lib/libbmetal_crt.a(intr.c.o)
 .comment       0x0000000000000011       0x12 ../../sysroot/lib/libbmetal_crt.a(lock.c.o)
 .comment       0x0000000000000011       0x12 ../../sysroot/lib/libbmetal_crt.a(sync.c.o)
 .comment       0x0000000000000011       0x12 ../../sysroot/lib/libbmetal_crt.a(thread.c.o)
 .comment       0x0000000000000011       0x12 ../../sysroot/lib/libbmetal_crt.a(soc.c.o)
 .comment       0x0000000000000011       0x12 ../../sysroot/lib/libbmetal_crt.a(clock.c.o)
 .comment       0x0000000000000011       0x12 ../../sysroot/lib/libbmetal_crt.a(event.c.o)
 .comment       0x0000000000000011       0x12 ../../sysroot/lib/libbmetal_crt.a(file.c.o)
 .comment       0x0000000000000011       0x12 ../../sysroot/lib/libbmetal_crt.a(fini.c.o)
 .comment       0x0000000000000011       0x12 ../../sysroot/lib/libbmetal_crt.a(init.c.o)
 .comment       0x0000000000000011       0x12 ../../sysroot/lib/libbmetal_crt.a(intr.c.o)
 .comment       0x0000000000000011       0x12 ../../sysroot/lib/libbmetal_crt.a(lock.c.o)
 .comment       0x0000000000000011       0x12 ../../sysroot/lib/libbmetal_crt.a(printk.c.o)
 .comment       0x0000000000000011       0x12 ../../sysroot/lib/libbmetal_crt.a(smp.c.o)
 .comment       0x0000000000000011       0x12 ../../sysroot/lib/libbmetal_crt.a(syscall.c.o)
 .comment       0x0000000000000011       0x12 ../../sysroot/lib/libbmetal_crt.a(thread.c.o)
 .comment       0x0000000000000011       0x12 ../../sysroot/lib/libbmetal_crt.a(vsprintf.c.o)
 .comment       0x0000000000000011       0x12 ../../sysroot/lib/libbmetal_crt.a(crt.c.o)
 .comment       0x0000000000000011       0x12 ../../sysroot/lib/libbmetal_crt.a(support.c.o)
 .comment       0x0000000000000011       0x12 ../../sysroot/lib/libbmetal_crt.a(string.c.o)
 .comment       0x0000000000000011       0x12 ../../sysroot/lib/libbmetal_crt.a(board.c.o)
 .comment       0x0000000000000011       0x12 ../../sysroot/lib/libbmetal_crt.a(device.c.o)
 .comment       0x0000000000000011       0x12 ../../sysroot/lib/libbmetal_crt.a(io.c.o)
 .comment       0x0000000000000011       0x12 ../../sysroot/lib/libbmetal_crt.a(cpu.c.o)
 .comment       0x0000000000000011       0x12 ../../sysroot/lib/libbmetal_crt.a(riscv.c.o)
 .comment       0x0000000000000011       0x12 ../../sysroot/lib/libbmetal_crt.a(clk.c.o)
 .comment       0x0000000000000011       0x12 ../../sysroot/lib/libbmetal_crt.a(clk_fixed.c.o)
 .comment       0x0000000000000011       0x12 ../../sysroot/lib/libbmetal_crt.a(intc.c.o)
 .comment       0x0000000000000011       0x12 ../../sysroot/lib/libbmetal_crt.a(rv_priv.c.o)
 .comment       0x0000000000000011       0x12 ../../sysroot/lib/libbmetal_crt.a(timer.c.o)
 .comment       0x0000000000000011       0x12 ../../sysroot/lib/libbmetal_crt.a(clint_timer.c.o)
 .comment       0x0000000000000011       0x12 ../../sysroot/lib/libbmetal_crt.a(uart.c.o)
 .comment       0x0000000000000011       0x12 ../../sysroot/lib/libbmetal_crt.a(uart_lite.c.o)
 .comment       0x0000000000000011       0x12 /opt/riscv/lib/gcc/riscv64-unknown-elf/9.2.0/../../../../riscv64-unknown-elf/lib/rv32im/ilp32/libc.a(lib_a-atexit.o)
 .comment       0x0000000000000011       0x12 /opt/riscv/lib/gcc/riscv64-unknown-elf/9.2.0/../../../../riscv64-unknown-elf/lib/rv32im/ilp32/libc.a(lib_a-exit.o)
 .comment       0x0000000000000011       0x12 /opt/riscv/lib/gcc/riscv64-unknown-elf/9.2.0/../../../../riscv64-unknown-elf/lib/rv32im/ilp32/libc.a(lib_a-fini.o)
 .comment       0x0000000000000011       0x12 /opt/riscv/lib/gcc/riscv64-unknown-elf/9.2.0/../../../../riscv64-unknown-elf/lib/rv32im/ilp32/libc.a(lib_a-impure.o)
 .comment       0x0000000000000011       0x12 /opt/riscv/lib/gcc/riscv64-unknown-elf/9.2.0/../../../../riscv64-unknown-elf/lib/rv32im/ilp32/libc.a(lib_a-init.o)
 .comment       0x0000000000000011       0x12 /opt/riscv/lib/gcc/riscv64-unknown-elf/9.2.0/../../../../riscv64-unknown-elf/lib/rv32im/ilp32/libc.a(lib_a-__atexit.o)
 .comment       0x0000000000000011       0x12 /opt/riscv/lib/gcc/riscv64-unknown-elf/9.2.0/../../../../riscv64-unknown-elf/lib/rv32im/ilp32/libc.a(lib_a-__call_atexit.o)
 .comment       0x0000000000000011       0x12 akaria_timer.o
 .comment       0x0000000000000011       0x12 main.o
 .comment       0x0000000000000011       0x12 /opt/riscv/lib/gcc/riscv64-unknown-elf/9.2.0/rv32im/ilp32/libgcc.a(_divdi3.o)
 .comment       0x0000000000000011       0x12 /opt/riscv/lib/gcc/riscv64-unknown-elf/9.2.0/rv32im/ilp32/libgcc.a(_udivdi3.o)
 .comment       0x0000000000000011       0x12 /opt/riscv/lib/gcc/riscv64-unknown-elf/9.2.0/rv32im/ilp32/libgcc.a(_umoddi3.o)
 .comment       0x0000000000000011       0x12 /opt/riscv/lib/gcc/riscv64-unknown-elf/9.2.0/rv32im/ilp32/libgcc.a(adddf3.o)
 .comment       0x0000000000000011       0x12 /opt/riscv/lib/gcc/riscv64-unknown-elf/9.2.0/rv32im/ilp32/libgcc.a(divdf3.o)
 .comment       0x0000000000000011       0x12 /opt/riscv/lib/gcc/riscv64-unknown-elf/9.2.0/rv32im/ilp32/libgcc.a(eqdf2.o)
 .comment       0x0000000000000011       0x12 /opt/riscv/lib/gcc/riscv64-unknown-elf/9.2.0/rv32im/ilp32/libgcc.a(gedf2.o)
 .comment       0x0000000000000011       0x12 /opt/riscv/lib/gcc/riscv64-unknown-elf/9.2.0/rv32im/ilp32/libgcc.a(ledf2.o)
 .comment       0x0000000000000011       0x12 /opt/riscv/lib/gcc/riscv64-unknown-elf/9.2.0/rv32im/ilp32/libgcc.a(muldf3.o)
 .comment       0x0000000000000011       0x12 /opt/riscv/lib/gcc/riscv64-unknown-elf/9.2.0/rv32im/ilp32/libgcc.a(subdf3.o)
 .comment       0x0000000000000011       0x12 /opt/riscv/lib/gcc/riscv64-unknown-elf/9.2.0/rv32im/ilp32/libgcc.a(fixdfsi.o)
 .comment       0x0000000000000011       0x12 /opt/riscv/lib/gcc/riscv64-unknown-elf/9.2.0/rv32im/ilp32/libgcc.a(fixunsdfsi.o)
 .comment       0x0000000000000011       0x12 /opt/riscv/lib/gcc/riscv64-unknown-elf/9.2.0/rv32im/ilp32/libgcc.a(floatsidf.o)
 .comment       0x0000000000000011       0x12 /opt/riscv/lib/gcc/riscv64-unknown-elf/9.2.0/rv32im/ilp32/libgcc.a(floatunsidf.o)
 .comment       0x0000000000000011       0x12 /opt/riscv/lib/gcc/riscv64-unknown-elf/9.2.0/rv32im/ilp32/libgcc.a(_clz.o)
 .comment       0x0000000000000011       0x12 /opt/riscv/lib/gcc/riscv64-unknown-elf/9.2.0/rv32im/ilp32/libgcc.a(_clzsi2.o)
 .comment       0x0000000000000011       0x12 /opt/riscv/lib/gcc/riscv64-unknown-elf/9.2.0/../../../../riscv64-unknown-elf/lib/rv32im/ilp32/libc.a(lib_a-printf.o)
 .comment       0x0000000000000011       0x12 /opt/riscv/lib/gcc/riscv64-unknown-elf/9.2.0/../../../../riscv64-unknown-elf/lib/rv32im/ilp32/libc.a(lib_a-vfprintf.o)
 .comment       0x0000000000000011       0x12 /opt/riscv/lib/gcc/riscv64-unknown-elf/9.2.0/../../../../riscv64-unknown-elf/lib/rv32im/ilp32/libc.a(lib_a-wsetup.o)
 .comment       0x0000000000000011       0x12 /opt/riscv/lib/gcc/riscv64-unknown-elf/9.2.0/../../../../riscv64-unknown-elf/lib/rv32im/ilp32/libc.a(lib_a-fflush.o)
 .comment       0x0000000000000011       0x12 /opt/riscv/lib/gcc/riscv64-unknown-elf/9.2.0/../../../../riscv64-unknown-elf/lib/rv32im/ilp32/libc.a(lib_a-findfp.o)
 .comment       0x0000000000000011       0x12 /opt/riscv/lib/gcc/riscv64-unknown-elf/9.2.0/../../../../riscv64-unknown-elf/lib/rv32im/ilp32/libc.a(lib_a-freer.o)
 .comment       0x0000000000000011       0x12 /opt/riscv/lib/gcc/riscv64-unknown-elf/9.2.0/../../../../riscv64-unknown-elf/lib/rv32im/ilp32/libc.a(lib_a-fwalk.o)
 .comment       0x0000000000000011       0x12 /opt/riscv/lib/gcc/riscv64-unknown-elf/9.2.0/../../../../riscv64-unknown-elf/lib/rv32im/ilp32/libc.a(lib_a-ldtoa.o)
 .comment       0x0000000000000011       0x12 /opt/riscv/lib/gcc/riscv64-unknown-elf/9.2.0/../../../../riscv64-unknown-elf/lib/rv32im/ilp32/libc.a(lib_a-localeconv.o)
 .comment       0x0000000000000011       0x12 /opt/riscv/lib/gcc/riscv64-unknown-elf/9.2.0/../../../../riscv64-unknown-elf/lib/rv32im/ilp32/libc.a(lib_a-makebuf.o)
 .comment       0x0000000000000011       0x12 /opt/riscv/lib/gcc/riscv64-unknown-elf/9.2.0/../../../../riscv64-unknown-elf/lib/rv32im/ilp32/libc.a(lib_a-mallocr.o)
 .comment       0x0000000000000011       0x12 /opt/riscv/lib/gcc/riscv64-unknown-elf/9.2.0/../../../../riscv64-unknown-elf/lib/rv32im/ilp32/libc.a(lib_a-memchr.o)
 .comment       0x0000000000000011       0x12 /opt/riscv/lib/gcc/riscv64-unknown-elf/9.2.0/../../../../riscv64-unknown-elf/lib/rv32im/ilp32/libc.a(lib_a-mlock.o)
 .comment       0x0000000000000011       0x12 /opt/riscv/lib/gcc/riscv64-unknown-elf/9.2.0/../../../../riscv64-unknown-elf/lib/rv32im/ilp32/libc.a(lib_a-mprec.o)
 .comment       0x0000000000000011       0x12 /opt/riscv/lib/gcc/riscv64-unknown-elf/9.2.0/../../../../riscv64-unknown-elf/lib/rv32im/ilp32/libc.a(lib_a-s_frexp.o)
 .comment       0x0000000000000011       0x12 /opt/riscv/lib/gcc/riscv64-unknown-elf/9.2.0/../../../../riscv64-unknown-elf/lib/rv32im/ilp32/libc.a(lib_a-sbrkr.o)
 .comment       0x0000000000000011       0x12 /opt/riscv/lib/gcc/riscv64-unknown-elf/9.2.0/../../../../riscv64-unknown-elf/lib/rv32im/ilp32/libc.a(lib_a-sprintf.o)
 .comment       0x0000000000000011       0x12 /opt/riscv/lib/gcc/riscv64-unknown-elf/9.2.0/../../../../riscv64-unknown-elf/lib/rv32im/ilp32/libc.a(lib_a-stdio.o)
 .comment       0x0000000000000011       0x12 /opt/riscv/lib/gcc/riscv64-unknown-elf/9.2.0/../../../../riscv64-unknown-elf/lib/rv32im/ilp32/libc.a(lib_a-strcpy.o)
 .comment       0x0000000000000011       0x12 /opt/riscv/lib/gcc/riscv64-unknown-elf/9.2.0/../../../../riscv64-unknown-elf/lib/rv32im/ilp32/libc.a(lib_a-strlen.o)
 .comment       0x0000000000000011       0x12 /opt/riscv/lib/gcc/riscv64-unknown-elf/9.2.0/../../../../riscv64-unknown-elf/lib/rv32im/ilp32/libc.a(lib_a-strncpy.o)
 .comment       0x0000000000000011       0x12 /opt/riscv/lib/gcc/riscv64-unknown-elf/9.2.0/../../../../riscv64-unknown-elf/lib/rv32im/ilp32/libc.a(lib_a-svfprintf.o)
 .comment       0x0000000000000011       0x12 /opt/riscv/lib/gcc/riscv64-unknown-elf/9.2.0/../../../../riscv64-unknown-elf/lib/rv32im/ilp32/libc.a(lib_a-vfiprintf.o)
 .comment       0x0000000000000011       0x12 /opt/riscv/lib/gcc/riscv64-unknown-elf/9.2.0/../../../../riscv64-unknown-elf/lib/rv32im/ilp32/libc.a(lib_a-writer.o)
 .comment       0x0000000000000011       0x12 /opt/riscv/lib/gcc/riscv64-unknown-elf/9.2.0/../../../../riscv64-unknown-elf/lib/rv32im/ilp32/libc.a(lib_a-assert.o)
 .comment       0x0000000000000011       0x12 /opt/riscv/lib/gcc/riscv64-unknown-elf/9.2.0/../../../../riscv64-unknown-elf/lib/rv32im/ilp32/libc.a(lib_a-callocr.o)
 .comment       0x0000000000000011       0x12 /opt/riscv/lib/gcc/riscv64-unknown-elf/9.2.0/../../../../riscv64-unknown-elf/lib/rv32im/ilp32/libc.a(lib_a-closer.o)
 .comment       0x0000000000000011       0x12 /opt/riscv/lib/gcc/riscv64-unknown-elf/9.2.0/../../../../riscv64-unknown-elf/lib/rv32im/ilp32/libc.a(lib_a-fclose.o)
 .comment       0x0000000000000011       0x12 /opt/riscv/lib/gcc/riscv64-unknown-elf/9.2.0/../../../../riscv64-unknown-elf/lib/rv32im/ilp32/libc.a(lib_a-fiprintf.o)
 .comment       0x0000000000000011       0x12 /opt/riscv/lib/gcc/riscv64-unknown-elf/9.2.0/../../../../riscv64-unknown-elf/lib/rv32im/ilp32/libc.a(lib_a-fputwc.o)
 .comment       0x0000000000000011       0x12 /opt/riscv/lib/gcc/riscv64-unknown-elf/9.2.0/../../../../riscv64-unknown-elf/lib/rv32im/ilp32/libc.a(lib_a-fstatr.o)
 .comment       0x0000000000000011       0x12 /opt/riscv/lib/gcc/riscv64-unknown-elf/9.2.0/../../../../riscv64-unknown-elf/lib/rv32im/ilp32/libc.a(lib_a-fvwrite.o)
 .comment       0x0000000000000011       0x12 /opt/riscv/lib/gcc/riscv64-unknown-elf/9.2.0/../../../../riscv64-unknown-elf/lib/rv32im/ilp32/libc.a(lib_a-isattyr.o)
 .comment       0x0000000000000011       0x12 /opt/riscv/lib/gcc/riscv64-unknown-elf/9.2.0/../../../../riscv64-unknown-elf/lib/rv32im/ilp32/libc.a(lib_a-locale.o)
 .comment       0x0000000000000011       0x12 /opt/riscv/lib/gcc/riscv64-unknown-elf/9.2.0/../../../../riscv64-unknown-elf/lib/rv32im/ilp32/libc.a(lib_a-lseekr.o)
 .comment       0x0000000000000011       0x12 /opt/riscv/lib/gcc/riscv64-unknown-elf/9.2.0/../../../../riscv64-unknown-elf/lib/rv32im/ilp32/libc.a(lib_a-mbtowc_r.o)
 .comment       0x0000000000000011       0x12 /opt/riscv/lib/gcc/riscv64-unknown-elf/9.2.0/../../../../riscv64-unknown-elf/lib/rv32im/ilp32/libc.a(lib_a-memcpy.o)
 .comment       0x0000000000000011       0x12 /opt/riscv/lib/gcc/riscv64-unknown-elf/9.2.0/../../../../riscv64-unknown-elf/lib/rv32im/ilp32/libc.a(lib_a-memmove-stub.o)
 .comment       0x0000000000000011       0x12 /opt/riscv/lib/gcc/riscv64-unknown-elf/9.2.0/../../../../riscv64-unknown-elf/lib/rv32im/ilp32/libc.a(lib_a-readr.o)
 .comment       0x0000000000000011       0x12 /opt/riscv/lib/gcc/riscv64-unknown-elf/9.2.0/../../../../riscv64-unknown-elf/lib/rv32im/ilp32/libc.a(lib_a-reallocr.o)
 .comment       0x0000000000000011       0x12 /opt/riscv/lib/gcc/riscv64-unknown-elf/9.2.0/../../../../riscv64-unknown-elf/lib/rv32im/ilp32/libc.a(lib_a-reent.o)
 .comment       0x0000000000000011       0x12 /opt/riscv/lib/gcc/riscv64-unknown-elf/9.2.0/../../../../riscv64-unknown-elf/lib/rv32im/ilp32/libc.a(lib_a-svfiprintf.o)
 .comment       0x0000000000000011       0x12 /opt/riscv/lib/gcc/riscv64-unknown-elf/9.2.0/../../../../riscv64-unknown-elf/lib/rv32im/ilp32/libc.a(lib_a-wbuf.o)
 .comment       0x0000000000000011       0x12 /opt/riscv/lib/gcc/riscv64-unknown-elf/9.2.0/../../../../riscv64-unknown-elf/lib/rv32im/ilp32/libc.a(lib_a-wcrtomb.o)
 .comment       0x0000000000000011       0x12 /opt/riscv/lib/gcc/riscv64-unknown-elf/9.2.0/../../../../riscv64-unknown-elf/lib/rv32im/ilp32/libc.a(lib_a-wctomb_r.o)
 .comment       0x0000000000000011       0x12 /opt/riscv/lib/gcc/riscv64-unknown-elf/9.2.0/../../../../riscv64-unknown-elf/lib/rv32im/ilp32/libc.a(lib_a-abort.o)
 .comment       0x0000000000000011       0x12 /opt/riscv/lib/gcc/riscv64-unknown-elf/9.2.0/../../../../riscv64-unknown-elf/lib/rv32im/ilp32/libc.a(lib_a-ctype_.o)
 .comment       0x0000000000000011       0x12 /opt/riscv/lib/gcc/riscv64-unknown-elf/9.2.0/../../../../riscv64-unknown-elf/lib/rv32im/ilp32/libc.a(lib_a-signal.o)
 .comment       0x0000000000000011       0x12 /opt/riscv/lib/gcc/riscv64-unknown-elf/9.2.0/../../../../riscv64-unknown-elf/lib/rv32im/ilp32/libc.a(lib_a-signalr.o)
 .comment       0x0000000000000011       0x12 /opt/riscv/lib/gcc/riscv64-unknown-elf/9.2.0/../../../../riscv64-unknown-elf/lib/rv32im/ilp32/libgloss.a(sys_close.o)
 .comment       0x0000000000000011       0x12 /opt/riscv/lib/gcc/riscv64-unknown-elf/9.2.0/../../../../riscv64-unknown-elf/lib/rv32im/ilp32/libgloss.a(sys_exit.o)
 .comment       0x0000000000000011       0x12 /opt/riscv/lib/gcc/riscv64-unknown-elf/9.2.0/../../../../riscv64-unknown-elf/lib/rv32im/ilp32/libgloss.a(sys_fstat.o)
 .comment       0x0000000000000011       0x12 /opt/riscv/lib/gcc/riscv64-unknown-elf/9.2.0/../../../../riscv64-unknown-elf/lib/rv32im/ilp32/libgloss.a(sys_getpid.o)
 .comment       0x0000000000000011       0x12 /opt/riscv/lib/gcc/riscv64-unknown-elf/9.2.0/../../../../riscv64-unknown-elf/lib/rv32im/ilp32/libgloss.a(sys_isatty.o)
 .comment       0x0000000000000011       0x12 /opt/riscv/lib/gcc/riscv64-unknown-elf/9.2.0/../../../../riscv64-unknown-elf/lib/rv32im/ilp32/libgloss.a(sys_kill.o)
 .comment       0x0000000000000011       0x12 /opt/riscv/lib/gcc/riscv64-unknown-elf/9.2.0/../../../../riscv64-unknown-elf/lib/rv32im/ilp32/libgloss.a(sys_lseek.o)
 .comment       0x0000000000000011       0x12 /opt/riscv/lib/gcc/riscv64-unknown-elf/9.2.0/../../../../riscv64-unknown-elf/lib/rv32im/ilp32/libgloss.a(sys_read.o)
 .comment       0x0000000000000011       0x12 /opt/riscv/lib/gcc/riscv64-unknown-elf/9.2.0/../../../../riscv64-unknown-elf/lib/rv32im/ilp32/libgloss.a(sys_sbrk.o)
 .comment       0x0000000000000011       0x12 /opt/riscv/lib/gcc/riscv64-unknown-elf/9.2.0/../../../../riscv64-unknown-elf/lib/rv32im/ilp32/libgloss.a(sys_write.o)
 .comment       0x0000000000000011       0x12 /opt/riscv/lib/gcc/riscv64-unknown-elf/9.2.0/../../../../riscv64-unknown-elf/lib/rv32im/ilp32/libgloss.a(sys_conv_stat.o)
 .comment       0x0000000000000011       0x12 /opt/riscv/lib/gcc/riscv64-unknown-elf/9.2.0/rv32im/ilp32/libgcc.a(eqtf2.o)
 .comment       0x0000000000000011       0x12 /opt/riscv/lib/gcc/riscv64-unknown-elf/9.2.0/rv32im/ilp32/libgcc.a(getf2.o)
 .comment       0x0000000000000011       0x12 /opt/riscv/lib/gcc/riscv64-unknown-elf/9.2.0/rv32im/ilp32/libgcc.a(letf2.o)
 .comment       0x0000000000000011       0x12 /opt/riscv/lib/gcc/riscv64-unknown-elf/9.2.0/rv32im/ilp32/libgcc.a(multf3.o)
 .comment       0x0000000000000011       0x12 /opt/riscv/lib/gcc/riscv64-unknown-elf/9.2.0/rv32im/ilp32/libgcc.a(subtf3.o)
 .comment       0x0000000000000011       0x12 /opt/riscv/lib/gcc/riscv64-unknown-elf/9.2.0/rv32im/ilp32/libgcc.a(fixtfsi.o)
 .comment       0x0000000000000011       0x12 /opt/riscv/lib/gcc/riscv64-unknown-elf/9.2.0/rv32im/ilp32/libgcc.a(floatsitf.o)
 .comment       0x0000000000000011       0x12 /opt/riscv/lib/gcc/riscv64-unknown-elf/9.2.0/rv32im/ilp32/libgcc.a(extenddftf2.o)
 .comment       0x0000000000000011       0x12 /opt/riscv/lib/gcc/riscv64-unknown-elf/9.2.0/rv32im/ilp32/libgcc.a(trunctfdf2.o)
 .comment       0x0000000000000011       0x12 /opt/riscv/lib/gcc/riscv64-unknown-elf/9.2.0/rv32im/ilp32/crtend.o

.debug_line     0x0000000000000000    0x20e02
 .debug_line    0x0000000000000000      0x248 ../../sysroot/lib/libbmetal_crt.a(isr.S.o)
 .debug_line    0x0000000000000248      0x190 ../../sysroot/lib/libbmetal_crt.a(start.S.o)
 .debug_line    0x00000000000003d8       0xd1 ../../sysroot/lib/libbmetal_crt.a(switch.S.o)
 .debug_line    0x00000000000004a9      0x5a5 ../../sysroot/lib/libbmetal_crt.a(cpu.c.o)
 .debug_line    0x0000000000000a4e      0x7a0 ../../sysroot/lib/libbmetal_crt.a(intr.c.o)
 .debug_line    0x00000000000011ee       0x1d ../../sysroot/lib/libbmetal_crt.a(lock.c.o)
 .debug_line    0x000000000000120b        0x0 ../../sysroot/lib/libbmetal_crt.a(sync.c.o)
 .debug_line    0x000000000000120b      0x2be ../../sysroot/lib/libbmetal_crt.a(thread.c.o)
 .debug_line    0x00000000000014c9       0xb9 ../../sysroot/lib/libbmetal_crt.a(start.S.o)
 .debug_line    0x0000000000001582       0xea ../../sysroot/lib/libbmetal_crt.a(soc.c.o)
 .debug_line    0x000000000000166c      0x4da ../../sysroot/lib/libbmetal_crt.a(clock.c.o)
 .debug_line    0x0000000000001b46      0x57b ../../sysroot/lib/libbmetal_crt.a(event.c.o)
 .debug_line    0x00000000000020c1      0x301 ../../sysroot/lib/libbmetal_crt.a(file.c.o)
 .debug_line    0x00000000000023c2      0x1c5 ../../sysroot/lib/libbmetal_crt.a(fini.c.o)
 .debug_line    0x0000000000002587     0x1120 ../../sysroot/lib/libbmetal_crt.a(init.c.o)
 .debug_line    0x00000000000036a7      0x110 ../../sysroot/lib/libbmetal_crt.a(intr.c.o)
 .debug_line    0x00000000000037b7      0x513 ../../sysroot/lib/libbmetal_crt.a(lock.c.o)
 .debug_line    0x0000000000003cca      0x8e9 ../../sysroot/lib/libbmetal_crt.a(printk.c.o)
 .debug_line    0x00000000000045b3      0x448 ../../sysroot/lib/libbmetal_crt.a(smp.c.o)
 .debug_line    0x00000000000049fb     0x22a6 ../../sysroot/lib/libbmetal_crt.a(syscall.c.o)
 .debug_line    0x0000000000006ca1      0xe04 ../../sysroot/lib/libbmetal_crt.a(thread.c.o)
 .debug_line    0x0000000000007aa5     0x250c ../../sysroot/lib/libbmetal_crt.a(vsprintf.c.o)
 .debug_line    0x0000000000009fb1       0xfb ../../sysroot/lib/libbmetal_crt.a(crt.c.o)
 .debug_line    0x000000000000a0ac      0x3d8 ../../sysroot/lib/libbmetal_crt.a(support.c.o)
 .debug_line    0x000000000000a484      0xa62 ../../sysroot/lib/libbmetal_crt.a(string.c.o)
 .debug_line    0x000000000000aee6      0x35a ../../sysroot/lib/libbmetal_crt.a(board.c.o)
 .debug_line    0x000000000000b240     0x1376 ../../sysroot/lib/libbmetal_crt.a(device.c.o)
 .debug_line    0x000000000000c5b6      0x366 ../../sysroot/lib/libbmetal_crt.a(io.c.o)
 .debug_line    0x000000000000c91c     0x1f76 ../../sysroot/lib/libbmetal_crt.a(cpu.c.o)
 .debug_line    0x000000000000e892      0x6ab ../../sysroot/lib/libbmetal_crt.a(riscv.c.o)
 .debug_line    0x000000000000ef3d      0x6d2 ../../sysroot/lib/libbmetal_crt.a(clk.c.o)
 .debug_line    0x000000000000f60f      0x3b3 ../../sysroot/lib/libbmetal_crt.a(clk_fixed.c.o)
 .debug_line    0x000000000000f9c2      0xb34 ../../sysroot/lib/libbmetal_crt.a(intc.c.o)
 .debug_line    0x00000000000104f6      0xab5 ../../sysroot/lib/libbmetal_crt.a(rv_priv.c.o)
 .debug_line    0x0000000000010fab      0x2da ../../sysroot/lib/libbmetal_crt.a(timer.c.o)
 .debug_line    0x0000000000011285      0x7ff ../../sysroot/lib/libbmetal_crt.a(clint_timer.c.o)
 .debug_line    0x0000000000011a84      0x832 ../../sysroot/lib/libbmetal_crt.a(uart.c.o)
 .debug_line    0x00000000000122b6      0xc0e ../../sysroot/lib/libbmetal_crt.a(uart_lite.c.o)
 .debug_line    0x0000000000012ec4      0x314 akaria_timer.o
 .debug_line    0x00000000000131d8       0xcc main.o
 .debug_line    0x00000000000132a4      0x9a6 /opt/riscv/lib/gcc/riscv64-unknown-elf/9.2.0/rv32im/ilp32/libgcc.a(_divdi3.o)
 .debug_line    0x0000000000013c4a      0x8f7 /opt/riscv/lib/gcc/riscv64-unknown-elf/9.2.0/rv32im/ilp32/libgcc.a(_udivdi3.o)
 .debug_line    0x0000000000014541      0x995 /opt/riscv/lib/gcc/riscv64-unknown-elf/9.2.0/rv32im/ilp32/libgcc.a(_umoddi3.o)
 .debug_line    0x0000000000014ed6     0x104f /opt/riscv/lib/gcc/riscv64-unknown-elf/9.2.0/rv32im/ilp32/libgcc.a(adddf3.o)
 .debug_line    0x0000000000015f25      0xfa5 /opt/riscv/lib/gcc/riscv64-unknown-elf/9.2.0/rv32im/ilp32/libgcc.a(divdf3.o)
 .debug_line    0x0000000000016eca      0x298 /opt/riscv/lib/gcc/riscv64-unknown-elf/9.2.0/rv32im/ilp32/libgcc.a(eqdf2.o)
 .debug_line    0x0000000000017162      0x32d /opt/riscv/lib/gcc/riscv64-unknown-elf/9.2.0/rv32im/ilp32/libgcc.a(gedf2.o)
 .debug_line    0x000000000001748f      0x32d /opt/riscv/lib/gcc/riscv64-unknown-elf/9.2.0/rv32im/ilp32/libgcc.a(ledf2.o)
 .debug_line    0x00000000000177bc      0xde0 /opt/riscv/lib/gcc/riscv64-unknown-elf/9.2.0/rv32im/ilp32/libgcc.a(muldf3.o)
 .debug_line    0x000000000001859c     0x10ae /opt/riscv/lib/gcc/riscv64-unknown-elf/9.2.0/rv32im/ilp32/libgcc.a(subdf3.o)
 .debug_line    0x000000000001964a      0x24f /opt/riscv/lib/gcc/riscv64-unknown-elf/9.2.0/rv32im/ilp32/libgcc.a(fixdfsi.o)
 .debug_line    0x0000000000019899      0x1e0 /opt/riscv/lib/gcc/riscv64-unknown-elf/9.2.0/rv32im/ilp32/libgcc.a(fixunsdfsi.o)
 .debug_line    0x0000000000019a79      0x289 /opt/riscv/lib/gcc/riscv64-unknown-elf/9.2.0/rv32im/ilp32/libgcc.a(floatsidf.o)
 .debug_line    0x0000000000019d02      0x2a9 /opt/riscv/lib/gcc/riscv64-unknown-elf/9.2.0/rv32im/ilp32/libgcc.a(floatunsidf.o)
 .debug_line    0x0000000000019fab      0x1f9 /opt/riscv/lib/gcc/riscv64-unknown-elf/9.2.0/rv32im/ilp32/libgcc.a(_clz.o)
 .debug_line    0x000000000001a1a4      0x285 /opt/riscv/lib/gcc/riscv64-unknown-elf/9.2.0/rv32im/ilp32/libgcc.a(_clzsi2.o)
 .debug_line    0x000000000001a429      0x2ec /opt/riscv/lib/gcc/riscv64-unknown-elf/9.2.0/rv32im/ilp32/libgcc.a(eqtf2.o)
 .debug_line    0x000000000001a715      0x3c7 /opt/riscv/lib/gcc/riscv64-unknown-elf/9.2.0/rv32im/ilp32/libgcc.a(getf2.o)
 .debug_line    0x000000000001aadc      0x3c7 /opt/riscv/lib/gcc/riscv64-unknown-elf/9.2.0/rv32im/ilp32/libgcc.a(letf2.o)
 .debug_line    0x000000000001aea3     0x2331 /opt/riscv/lib/gcc/riscv64-unknown-elf/9.2.0/rv32im/ilp32/libgcc.a(multf3.o)
 .debug_line    0x000000000001d1d4     0x2833 /opt/riscv/lib/gcc/riscv64-unknown-elf/9.2.0/rv32im/ilp32/libgcc.a(subtf3.o)
 .debug_line    0x000000000001fa07      0x34a /opt/riscv/lib/gcc/riscv64-unknown-elf/9.2.0/rv32im/ilp32/libgcc.a(fixtfsi.o)
 .debug_line    0x000000000001fd51      0x3a7 /opt/riscv/lib/gcc/riscv64-unknown-elf/9.2.0/rv32im/ilp32/libgcc.a(floatsitf.o)
 .debug_line    0x00000000000200f8      0x5f4 /opt/riscv/lib/gcc/riscv64-unknown-elf/9.2.0/rv32im/ilp32/libgcc.a(extenddftf2.o)
 .debug_line    0x00000000000206ec      0x716 /opt/riscv/lib/gcc/riscv64-unknown-elf/9.2.0/rv32im/ilp32/libgcc.a(trunctfdf2.o)

.debug_info     0x0000000000000000    0x24738
 .debug_info    0x0000000000000000       0x26 ../../sysroot/lib/libbmetal_crt.a(isr.S.o)
 .debug_info    0x0000000000000026       0x26 ../../sysroot/lib/libbmetal_crt.a(start.S.o)
 .debug_info    0x000000000000004c       0x26 ../../sysroot/lib/libbmetal_crt.a(switch.S.o)
 .debug_info    0x0000000000000072      0x3b8 ../../sysroot/lib/libbmetal_crt.a(cpu.c.o)
 .debug_info    0x000000000000042a      0x47e ../../sysroot/lib/libbmetal_crt.a(intr.c.o)
 .debug_info    0x00000000000008a8       0x2c ../../sysroot/lib/libbmetal_crt.a(lock.c.o)
 .debug_info    0x00000000000008d4      0x507 ../../sysroot/lib/libbmetal_crt.a(thread.c.o)
 .debug_info    0x0000000000000ddb       0x26 ../../sysroot/lib/libbmetal_crt.a(start.S.o)
 .debug_info    0x0000000000000e01       0xed ../../sysroot/lib/libbmetal_crt.a(soc.c.o)
 .debug_info    0x0000000000000eee      0x821 ../../sysroot/lib/libbmetal_crt.a(clock.c.o)
 .debug_info    0x000000000000170f      0x34e ../../sysroot/lib/libbmetal_crt.a(event.c.o)
 .debug_info    0x0000000000001a5d      0x62c ../../sysroot/lib/libbmetal_crt.a(file.c.o)
 .debug_info    0x0000000000002089      0x653 ../../sysroot/lib/libbmetal_crt.a(fini.c.o)
 .debug_info    0x00000000000026dc     0x1a2a ../../sysroot/lib/libbmetal_crt.a(init.c.o)
 .debug_info    0x0000000000004106      0x165 ../../sysroot/lib/libbmetal_crt.a(intr.c.o)
 .debug_info    0x000000000000426b      0x517 ../../sysroot/lib/libbmetal_crt.a(lock.c.o)
 .debug_info    0x0000000000004782      0xa44 ../../sysroot/lib/libbmetal_crt.a(printk.c.o)
 .debug_info    0x00000000000051c6      0x9c7 ../../sysroot/lib/libbmetal_crt.a(smp.c.o)
 .debug_info    0x0000000000005b8d     0x24a4 ../../sysroot/lib/libbmetal_crt.a(syscall.c.o)
 .debug_info    0x0000000000008031     0x1110 ../../sysroot/lib/libbmetal_crt.a(thread.c.o)
 .debug_info    0x0000000000009141     0x14c4 ../../sysroot/lib/libbmetal_crt.a(vsprintf.c.o)
 .debug_info    0x000000000000a605      0x12e ../../sysroot/lib/libbmetal_crt.a(crt.c.o)
 .debug_info    0x000000000000a733      0xce5 ../../sysroot/lib/libbmetal_crt.a(support.c.o)
 .debug_info    0x000000000000b418      0x4ae ../../sysroot/lib/libbmetal_crt.a(string.c.o)
 .debug_info    0x000000000000b8c6      0xc33 ../../sysroot/lib/libbmetal_crt.a(board.c.o)
 .debug_info    0x000000000000c4f9     0x13fb ../../sysroot/lib/libbmetal_crt.a(device.c.o)
 .debug_info    0x000000000000d8f4      0x6a7 ../../sysroot/lib/libbmetal_crt.a(io.c.o)
 .debug_info    0x000000000000df9b     0x256b ../../sysroot/lib/libbmetal_crt.a(cpu.c.o)
 .debug_info    0x0000000000010506     0x1127 ../../sysroot/lib/libbmetal_crt.a(riscv.c.o)
 .debug_info    0x000000000001162d      0xb9c ../../sysroot/lib/libbmetal_crt.a(clk.c.o)
 .debug_info    0x00000000000121c9      0x97d ../../sysroot/lib/libbmetal_crt.a(clk_fixed.c.o)
 .debug_info    0x0000000000012b46     0x1329 ../../sysroot/lib/libbmetal_crt.a(intc.c.o)
 .debug_info    0x0000000000013e6f     0x1389 ../../sysroot/lib/libbmetal_crt.a(rv_priv.c.o)
 .debug_info    0x00000000000151f8      0x49e ../../sysroot/lib/libbmetal_crt.a(timer.c.o)
 .debug_info    0x0000000000015696      0xcc8 ../../sysroot/lib/libbmetal_crt.a(clint_timer.c.o)
 .debug_info    0x000000000001635e      0xbd9 ../../sysroot/lib/libbmetal_crt.a(uart.c.o)
 .debug_info    0x0000000000016f37     0x1237 ../../sysroot/lib/libbmetal_crt.a(uart_lite.c.o)
 .debug_info    0x000000000001816e      0xb28 akaria_timer.o
 .debug_info    0x0000000000018c96      0x942 main.o
 .debug_info    0x00000000000195d8     0x127b /opt/riscv/lib/gcc/riscv64-unknown-elf/9.2.0/rv32im/ilp32/libgcc.a(_divdi3.o)
 .debug_info    0x000000000001a853     0x1245 /opt/riscv/lib/gcc/riscv64-unknown-elf/9.2.0/rv32im/ilp32/libgcc.a(_udivdi3.o)
 .debug_info    0x000000000001ba98     0x12a1 /opt/riscv/lib/gcc/riscv64-unknown-elf/9.2.0/rv32im/ilp32/libgcc.a(_umoddi3.o)
 .debug_info    0x000000000001cd39      0x599 /opt/riscv/lib/gcc/riscv64-unknown-elf/9.2.0/rv32im/ilp32/libgcc.a(adddf3.o)
 .debug_info    0x000000000001d2d2      0x730 /opt/riscv/lib/gcc/riscv64-unknown-elf/9.2.0/rv32im/ilp32/libgcc.a(divdf3.o)
 .debug_info    0x000000000001da02      0x288 /opt/riscv/lib/gcc/riscv64-unknown-elf/9.2.0/rv32im/ilp32/libgcc.a(eqdf2.o)
 .debug_info    0x000000000001dc8a      0x286 /opt/riscv/lib/gcc/riscv64-unknown-elf/9.2.0/rv32im/ilp32/libgcc.a(gedf2.o)
 .debug_info    0x000000000001df10      0x286 /opt/riscv/lib/gcc/riscv64-unknown-elf/9.2.0/rv32im/ilp32/libgcc.a(ledf2.o)
 .debug_info    0x000000000001e196      0x75c /opt/riscv/lib/gcc/riscv64-unknown-elf/9.2.0/rv32im/ilp32/libgcc.a(muldf3.o)
 .debug_info    0x000000000001e8f2      0x599 /opt/riscv/lib/gcc/riscv64-unknown-elf/9.2.0/rv32im/ilp32/libgcc.a(subdf3.o)
 .debug_info    0x000000000001ee8b      0x21a /opt/riscv/lib/gcc/riscv64-unknown-elf/9.2.0/rv32im/ilp32/libgcc.a(fixdfsi.o)
 .debug_info    0x000000000001f0a5      0x208 /opt/riscv/lib/gcc/riscv64-unknown-elf/9.2.0/rv32im/ilp32/libgcc.a(fixunsdfsi.o)
 .debug_info    0x000000000001f2ad      0x2bc /opt/riscv/lib/gcc/riscv64-unknown-elf/9.2.0/rv32im/ilp32/libgcc.a(floatsidf.o)
 .debug_info    0x000000000001f569      0x2af /opt/riscv/lib/gcc/riscv64-unknown-elf/9.2.0/rv32im/ilp32/libgcc.a(floatunsidf.o)
 .debug_info    0x000000000001f818      0xb6a /opt/riscv/lib/gcc/riscv64-unknown-elf/9.2.0/rv32im/ilp32/libgcc.a(_clz.o)
 .debug_info    0x0000000000020382      0xbd7 /opt/riscv/lib/gcc/riscv64-unknown-elf/9.2.0/rv32im/ilp32/libgcc.a(_clzsi2.o)
 .debug_info    0x0000000000020f59      0x298 /opt/riscv/lib/gcc/riscv64-unknown-elf/9.2.0/rv32im/ilp32/libgcc.a(eqtf2.o)
 .debug_info    0x00000000000211f1      0x296 /opt/riscv/lib/gcc/riscv64-unknown-elf/9.2.0/rv32im/ilp32/libgcc.a(getf2.o)
 .debug_info    0x0000000000021487      0x296 /opt/riscv/lib/gcc/riscv64-unknown-elf/9.2.0/rv32im/ilp32/libgcc.a(letf2.o)
 .debug_info    0x000000000002171d     0x125c /opt/riscv/lib/gcc/riscv64-unknown-elf/9.2.0/rv32im/ilp32/libgcc.a(multf3.o)
 .debug_info    0x0000000000022979      0xe1b /opt/riscv/lib/gcc/riscv64-unknown-elf/9.2.0/rv32im/ilp32/libgcc.a(subtf3.o)
 .debug_info    0x0000000000023794      0x2bd /opt/riscv/lib/gcc/riscv64-unknown-elf/9.2.0/rv32im/ilp32/libgcc.a(fixtfsi.o)
 .debug_info    0x0000000000023a51      0x3be /opt/riscv/lib/gcc/riscv64-unknown-elf/9.2.0/rv32im/ilp32/libgcc.a(floatsitf.o)
 .debug_info    0x0000000000023e0f      0x3f6 /opt/riscv/lib/gcc/riscv64-unknown-elf/9.2.0/rv32im/ilp32/libgcc.a(extenddftf2.o)
 .debug_info    0x0000000000024205      0x533 /opt/riscv/lib/gcc/riscv64-unknown-elf/9.2.0/rv32im/ilp32/libgcc.a(trunctfdf2.o)

.debug_abbrev   0x0000000000000000     0x79d2
 .debug_abbrev  0x0000000000000000       0x14 ../../sysroot/lib/libbmetal_crt.a(isr.S.o)
 .debug_abbrev  0x0000000000000014       0x14 ../../sysroot/lib/libbmetal_crt.a(start.S.o)
 .debug_abbrev  0x0000000000000028       0x14 ../../sysroot/lib/libbmetal_crt.a(switch.S.o)
 .debug_abbrev  0x000000000000003c      0x139 ../../sysroot/lib/libbmetal_crt.a(cpu.c.o)
 .debug_abbrev  0x0000000000000175      0x19c ../../sysroot/lib/libbmetal_crt.a(intr.c.o)
 .debug_abbrev  0x0000000000000311       0x26 ../../sysroot/lib/libbmetal_crt.a(lock.c.o)
 .debug_abbrev  0x0000000000000337      0x115 ../../sysroot/lib/libbmetal_crt.a(thread.c.o)
 .debug_abbrev  0x000000000000044c       0x14 ../../sysroot/lib/libbmetal_crt.a(start.S.o)
 .debug_abbrev  0x0000000000000460       0xa0 ../../sysroot/lib/libbmetal_crt.a(soc.c.o)
 .debug_abbrev  0x0000000000000500      0x1db ../../sysroot/lib/libbmetal_crt.a(clock.c.o)
 .debug_abbrev  0x00000000000006db      0x14e ../../sysroot/lib/libbmetal_crt.a(event.c.o)
 .debug_abbrev  0x0000000000000829      0x163 ../../sysroot/lib/libbmetal_crt.a(file.c.o)
 .debug_abbrev  0x000000000000098c      0x159 ../../sysroot/lib/libbmetal_crt.a(fini.c.o)
 .debug_abbrev  0x0000000000000ae5      0x41e ../../sysroot/lib/libbmetal_crt.a(init.c.o)
 .debug_abbrev  0x0000000000000f03       0xa2 ../../sysroot/lib/libbmetal_crt.a(intr.c.o)
 .debug_abbrev  0x0000000000000fa5      0x194 ../../sysroot/lib/libbmetal_crt.a(lock.c.o)
 .debug_abbrev  0x0000000000001139      0x31a ../../sysroot/lib/libbmetal_crt.a(printk.c.o)
 .debug_abbrev  0x0000000000001453      0x181 ../../sysroot/lib/libbmetal_crt.a(smp.c.o)
 .debug_abbrev  0x00000000000015d4      0x455 ../../sysroot/lib/libbmetal_crt.a(syscall.c.o)
 .debug_abbrev  0x0000000000001a29      0x2ba ../../sysroot/lib/libbmetal_crt.a(thread.c.o)
 .debug_abbrev  0x0000000000001ce3      0x422 ../../sysroot/lib/libbmetal_crt.a(vsprintf.c.o)
 .debug_abbrev  0x0000000000002105       0xe5 ../../sysroot/lib/libbmetal_crt.a(crt.c.o)
 .debug_abbrev  0x00000000000021ea      0x1d8 ../../sysroot/lib/libbmetal_crt.a(support.c.o)
 .debug_abbrev  0x00000000000023c2      0x16c ../../sysroot/lib/libbmetal_crt.a(string.c.o)
 .debug_abbrev  0x000000000000252e      0x1af ../../sysroot/lib/libbmetal_crt.a(board.c.o)
 .debug_abbrev  0x00000000000026dd      0x48f ../../sysroot/lib/libbmetal_crt.a(device.c.o)
 .debug_abbrev  0x0000000000002b6c      0x1ef ../../sysroot/lib/libbmetal_crt.a(io.c.o)
 .debug_abbrev  0x0000000000002d5b      0x455 ../../sysroot/lib/libbmetal_crt.a(cpu.c.o)
 .debug_abbrev  0x00000000000031b0      0x2c3 ../../sysroot/lib/libbmetal_crt.a(riscv.c.o)
 .debug_abbrev  0x0000000000003473      0x1f2 ../../sysroot/lib/libbmetal_crt.a(clk.c.o)
 .debug_abbrev  0x0000000000003665      0x271 ../../sysroot/lib/libbmetal_crt.a(clk_fixed.c.o)
 .debug_abbrev  0x00000000000038d6      0x2a2 ../../sysroot/lib/libbmetal_crt.a(intc.c.o)
 .debug_abbrev  0x0000000000003b78      0x2c1 ../../sysroot/lib/libbmetal_crt.a(rv_priv.c.o)
 .debug_abbrev  0x0000000000003e39      0x1d8 ../../sysroot/lib/libbmetal_crt.a(timer.c.o)
 .debug_abbrev  0x0000000000004011      0x283 ../../sysroot/lib/libbmetal_crt.a(clint_timer.c.o)
 .debug_abbrev  0x0000000000004294      0x2b2 ../../sysroot/lib/libbmetal_crt.a(uart.c.o)
 .debug_abbrev  0x0000000000004546      0x329 ../../sysroot/lib/libbmetal_crt.a(uart_lite.c.o)
 .debug_abbrev  0x000000000000486f      0x2f3 akaria_timer.o
 .debug_abbrev  0x0000000000004b62      0x1df main.o
 .debug_abbrev  0x0000000000004d41      0x2e4 /opt/riscv/lib/gcc/riscv64-unknown-elf/9.2.0/rv32im/ilp32/libgcc.a(_divdi3.o)
 .debug_abbrev  0x0000000000005025      0x2cc /opt/riscv/lib/gcc/riscv64-unknown-elf/9.2.0/rv32im/ilp32/libgcc.a(_udivdi3.o)
 .debug_abbrev  0x00000000000052f1      0x2e8 /opt/riscv/lib/gcc/riscv64-unknown-elf/9.2.0/rv32im/ilp32/libgcc.a(_umoddi3.o)
 .debug_abbrev  0x00000000000055d9      0x196 /opt/riscv/lib/gcc/riscv64-unknown-elf/9.2.0/rv32im/ilp32/libgcc.a(adddf3.o)
 .debug_abbrev  0x000000000000576f      0x187 /opt/riscv/lib/gcc/riscv64-unknown-elf/9.2.0/rv32im/ilp32/libgcc.a(divdf3.o)
 .debug_abbrev  0x00000000000058f6      0x186 /opt/riscv/lib/gcc/riscv64-unknown-elf/9.2.0/rv32im/ilp32/libgcc.a(eqdf2.o)
 .debug_abbrev  0x0000000000005a7c      0x199 /opt/riscv/lib/gcc/riscv64-unknown-elf/9.2.0/rv32im/ilp32/libgcc.a(gedf2.o)
 .debug_abbrev  0x0000000000005c15      0x199 /opt/riscv/lib/gcc/riscv64-unknown-elf/9.2.0/rv32im/ilp32/libgcc.a(ledf2.o)
 .debug_abbrev  0x0000000000005dae      0x18e /opt/riscv/lib/gcc/riscv64-unknown-elf/9.2.0/rv32im/ilp32/libgcc.a(muldf3.o)
 .debug_abbrev  0x0000000000005f3c      0x196 /opt/riscv/lib/gcc/riscv64-unknown-elf/9.2.0/rv32im/ilp32/libgcc.a(subdf3.o)
 .debug_abbrev  0x00000000000060d2      0x18a /opt/riscv/lib/gcc/riscv64-unknown-elf/9.2.0/rv32im/ilp32/libgcc.a(fixdfsi.o)
 .debug_abbrev  0x000000000000625c      0x18a /opt/riscv/lib/gcc/riscv64-unknown-elf/9.2.0/rv32im/ilp32/libgcc.a(fixunsdfsi.o)
 .debug_abbrev  0x00000000000063e6      0x178 /opt/riscv/lib/gcc/riscv64-unknown-elf/9.2.0/rv32im/ilp32/libgcc.a(floatsidf.o)
 .debug_abbrev  0x000000000000655e      0x178 /opt/riscv/lib/gcc/riscv64-unknown-elf/9.2.0/rv32im/ilp32/libgcc.a(floatunsidf.o)
 .debug_abbrev  0x00000000000066d6      0x1e8 /opt/riscv/lib/gcc/riscv64-unknown-elf/9.2.0/rv32im/ilp32/libgcc.a(_clz.o)
 .debug_abbrev  0x00000000000068be      0x242 /opt/riscv/lib/gcc/riscv64-unknown-elf/9.2.0/rv32im/ilp32/libgcc.a(_clzsi2.o)
 .debug_abbrev  0x0000000000006b00      0x18b /opt/riscv/lib/gcc/riscv64-unknown-elf/9.2.0/rv32im/ilp32/libgcc.a(eqtf2.o)
 .debug_abbrev  0x0000000000006c8b      0x19e /opt/riscv/lib/gcc/riscv64-unknown-elf/9.2.0/rv32im/ilp32/libgcc.a(getf2.o)
 .debug_abbrev  0x0000000000006e29      0x19e /opt/riscv/lib/gcc/riscv64-unknown-elf/9.2.0/rv32im/ilp32/libgcc.a(letf2.o)
 .debug_abbrev  0x0000000000006fc7      0x1a8 /opt/riscv/lib/gcc/riscv64-unknown-elf/9.2.0/rv32im/ilp32/libgcc.a(multf3.o)
 .debug_abbrev  0x000000000000716f      0x1bd /opt/riscv/lib/gcc/riscv64-unknown-elf/9.2.0/rv32im/ilp32/libgcc.a(subtf3.o)
 .debug_abbrev  0x000000000000732c      0x1a3 /opt/riscv/lib/gcc/riscv64-unknown-elf/9.2.0/rv32im/ilp32/libgcc.a(fixtfsi.o)
 .debug_abbrev  0x00000000000074cf      0x1a1 /opt/riscv/lib/gcc/riscv64-unknown-elf/9.2.0/rv32im/ilp32/libgcc.a(floatsitf.o)
 .debug_abbrev  0x0000000000007670      0x1ab /opt/riscv/lib/gcc/riscv64-unknown-elf/9.2.0/rv32im/ilp32/libgcc.a(extenddftf2.o)
 .debug_abbrev  0x000000000000781b      0x1b7 /opt/riscv/lib/gcc/riscv64-unknown-elf/9.2.0/rv32im/ilp32/libgcc.a(trunctfdf2.o)

.debug_aranges  0x0000000000000000      0x7f0
 .debug_aranges
                0x0000000000000000       0x20 ../../sysroot/lib/libbmetal_crt.a(isr.S.o)
 .debug_aranges
                0x0000000000000020       0x20 ../../sysroot/lib/libbmetal_crt.a(start.S.o)
 .debug_aranges
                0x0000000000000040       0x20 ../../sysroot/lib/libbmetal_crt.a(switch.S.o)
 .debug_aranges
                0x0000000000000060       0x20 ../../sysroot/lib/libbmetal_crt.a(cpu.c.o)
 .debug_aranges
                0x0000000000000080       0x20 ../../sysroot/lib/libbmetal_crt.a(intr.c.o)
 .debug_aranges
                0x00000000000000a0       0x18 ../../sysroot/lib/libbmetal_crt.a(lock.c.o)
 .debug_aranges
                0x00000000000000b8       0x20 ../../sysroot/lib/libbmetal_crt.a(thread.c.o)
 .debug_aranges
                0x00000000000000d8       0x20 ../../sysroot/lib/libbmetal_crt.a(start.S.o)
 .debug_aranges
                0x00000000000000f8       0x20 ../../sysroot/lib/libbmetal_crt.a(soc.c.o)
 .debug_aranges
                0x0000000000000118       0x20 ../../sysroot/lib/libbmetal_crt.a(clock.c.o)
 .debug_aranges
                0x0000000000000138       0x20 ../../sysroot/lib/libbmetal_crt.a(event.c.o)
 .debug_aranges
                0x0000000000000158       0x20 ../../sysroot/lib/libbmetal_crt.a(file.c.o)
 .debug_aranges
                0x0000000000000178       0x20 ../../sysroot/lib/libbmetal_crt.a(fini.c.o)
 .debug_aranges
                0x0000000000000198       0x20 ../../sysroot/lib/libbmetal_crt.a(init.c.o)
 .debug_aranges
                0x00000000000001b8       0x20 ../../sysroot/lib/libbmetal_crt.a(intr.c.o)
 .debug_aranges
                0x00000000000001d8       0x20 ../../sysroot/lib/libbmetal_crt.a(lock.c.o)
 .debug_aranges
                0x00000000000001f8       0x20 ../../sysroot/lib/libbmetal_crt.a(printk.c.o)
 .debug_aranges
                0x0000000000000218       0x20 ../../sysroot/lib/libbmetal_crt.a(smp.c.o)
 .debug_aranges
                0x0000000000000238       0x20 ../../sysroot/lib/libbmetal_crt.a(syscall.c.o)
 .debug_aranges
                0x0000000000000258       0x20 ../../sysroot/lib/libbmetal_crt.a(thread.c.o)
 .debug_aranges
                0x0000000000000278       0x20 ../../sysroot/lib/libbmetal_crt.a(vsprintf.c.o)
 .debug_aranges
                0x0000000000000298       0x20 ../../sysroot/lib/libbmetal_crt.a(crt.c.o)
 .debug_aranges
                0x00000000000002b8       0x20 ../../sysroot/lib/libbmetal_crt.a(support.c.o)
 .debug_aranges
                0x00000000000002d8       0x20 ../../sysroot/lib/libbmetal_crt.a(string.c.o)
 .debug_aranges
                0x00000000000002f8       0x20 ../../sysroot/lib/libbmetal_crt.a(board.c.o)
 .debug_aranges
                0x0000000000000318       0x20 ../../sysroot/lib/libbmetal_crt.a(device.c.o)
 .debug_aranges
                0x0000000000000338       0x20 ../../sysroot/lib/libbmetal_crt.a(io.c.o)
 .debug_aranges
                0x0000000000000358       0x20 ../../sysroot/lib/libbmetal_crt.a(cpu.c.o)
 .debug_aranges
                0x0000000000000378       0x20 ../../sysroot/lib/libbmetal_crt.a(riscv.c.o)
 .debug_aranges
                0x0000000000000398       0x20 ../../sysroot/lib/libbmetal_crt.a(clk.c.o)
 .debug_aranges
                0x00000000000003b8       0x20 ../../sysroot/lib/libbmetal_crt.a(clk_fixed.c.o)
 .debug_aranges
                0x00000000000003d8       0x20 ../../sysroot/lib/libbmetal_crt.a(intc.c.o)
 .debug_aranges
                0x00000000000003f8       0x20 ../../sysroot/lib/libbmetal_crt.a(rv_priv.c.o)
 .debug_aranges
                0x0000000000000418       0x20 ../../sysroot/lib/libbmetal_crt.a(timer.c.o)
 .debug_aranges
                0x0000000000000438       0x20 ../../sysroot/lib/libbmetal_crt.a(clint_timer.c.o)
 .debug_aranges
                0x0000000000000458       0x20 ../../sysroot/lib/libbmetal_crt.a(uart.c.o)
 .debug_aranges
                0x0000000000000478       0x20 ../../sysroot/lib/libbmetal_crt.a(uart_lite.c.o)
 .debug_aranges
                0x0000000000000498       0x20 akaria_timer.o
 .debug_aranges
                0x00000000000004b8       0x20 main.o
 .debug_aranges
                0x00000000000004d8       0x20 /opt/riscv/lib/gcc/riscv64-unknown-elf/9.2.0/rv32im/ilp32/libgcc.a(_divdi3.o)
 .debug_aranges
                0x00000000000004f8       0x20 /opt/riscv/lib/gcc/riscv64-unknown-elf/9.2.0/rv32im/ilp32/libgcc.a(_udivdi3.o)
 .debug_aranges
                0x0000000000000518       0x20 /opt/riscv/lib/gcc/riscv64-unknown-elf/9.2.0/rv32im/ilp32/libgcc.a(_umoddi3.o)
 .debug_aranges
                0x0000000000000538       0x20 /opt/riscv/lib/gcc/riscv64-unknown-elf/9.2.0/rv32im/ilp32/libgcc.a(adddf3.o)
 .debug_aranges
                0x0000000000000558       0x20 /opt/riscv/lib/gcc/riscv64-unknown-elf/9.2.0/rv32im/ilp32/libgcc.a(divdf3.o)
 .debug_aranges
                0x0000000000000578       0x20 /opt/riscv/lib/gcc/riscv64-unknown-elf/9.2.0/rv32im/ilp32/libgcc.a(eqdf2.o)
 .debug_aranges
                0x0000000000000598       0x20 /opt/riscv/lib/gcc/riscv64-unknown-elf/9.2.0/rv32im/ilp32/libgcc.a(gedf2.o)
 .debug_aranges
                0x00000000000005b8       0x20 /opt/riscv/lib/gcc/riscv64-unknown-elf/9.2.0/rv32im/ilp32/libgcc.a(ledf2.o)
 .debug_aranges
                0x00000000000005d8       0x20 /opt/riscv/lib/gcc/riscv64-unknown-elf/9.2.0/rv32im/ilp32/libgcc.a(muldf3.o)
 .debug_aranges
                0x00000000000005f8       0x20 /opt/riscv/lib/gcc/riscv64-unknown-elf/9.2.0/rv32im/ilp32/libgcc.a(subdf3.o)
 .debug_aranges
                0x0000000000000618       0x20 /opt/riscv/lib/gcc/riscv64-unknown-elf/9.2.0/rv32im/ilp32/libgcc.a(fixdfsi.o)
 .debug_aranges
                0x0000000000000638       0x20 /opt/riscv/lib/gcc/riscv64-unknown-elf/9.2.0/rv32im/ilp32/libgcc.a(fixunsdfsi.o)
 .debug_aranges
                0x0000000000000658       0x20 /opt/riscv/lib/gcc/riscv64-unknown-elf/9.2.0/rv32im/ilp32/libgcc.a(floatsidf.o)
 .debug_aranges
                0x0000000000000678       0x20 /opt/riscv/lib/gcc/riscv64-unknown-elf/9.2.0/rv32im/ilp32/libgcc.a(floatunsidf.o)
 .debug_aranges
                0x0000000000000698       0x18 /opt/riscv/lib/gcc/riscv64-unknown-elf/9.2.0/rv32im/ilp32/libgcc.a(_clz.o)
 .debug_aranges
                0x00000000000006b0       0x20 /opt/riscv/lib/gcc/riscv64-unknown-elf/9.2.0/rv32im/ilp32/libgcc.a(_clzsi2.o)
 .debug_aranges
                0x00000000000006d0       0x20 /opt/riscv/lib/gcc/riscv64-unknown-elf/9.2.0/rv32im/ilp32/libgcc.a(eqtf2.o)
 .debug_aranges
                0x00000000000006f0       0x20 /opt/riscv/lib/gcc/riscv64-unknown-elf/9.2.0/rv32im/ilp32/libgcc.a(getf2.o)
 .debug_aranges
                0x0000000000000710       0x20 /opt/riscv/lib/gcc/riscv64-unknown-elf/9.2.0/rv32im/ilp32/libgcc.a(letf2.o)
 .debug_aranges
                0x0000000000000730       0x20 /opt/riscv/lib/gcc/riscv64-unknown-elf/9.2.0/rv32im/ilp32/libgcc.a(multf3.o)
 .debug_aranges
                0x0000000000000750       0x20 /opt/riscv/lib/gcc/riscv64-unknown-elf/9.2.0/rv32im/ilp32/libgcc.a(subtf3.o)
 .debug_aranges
                0x0000000000000770       0x20 /opt/riscv/lib/gcc/riscv64-unknown-elf/9.2.0/rv32im/ilp32/libgcc.a(fixtfsi.o)
 .debug_aranges
                0x0000000000000790       0x20 /opt/riscv/lib/gcc/riscv64-unknown-elf/9.2.0/rv32im/ilp32/libgcc.a(floatsitf.o)
 .debug_aranges
                0x00000000000007b0       0x20 /opt/riscv/lib/gcc/riscv64-unknown-elf/9.2.0/rv32im/ilp32/libgcc.a(extenddftf2.o)
 .debug_aranges
                0x00000000000007d0       0x20 /opt/riscv/lib/gcc/riscv64-unknown-elf/9.2.0/rv32im/ilp32/libgcc.a(trunctfdf2.o)

.debug_str      0x0000000000000000     0x499e
 .debug_str     0x0000000000000000       0x95 ../../sysroot/lib/libbmetal_crt.a(isr.S.o)
 .debug_str     0x0000000000000095       0x4c ../../sysroot/lib/libbmetal_crt.a(start.S.o)
                                         0x97 (緩和前のサイズ)
 .debug_str     0x00000000000000e1       0x4d ../../sysroot/lib/libbmetal_crt.a(switch.S.o)
                                         0x98 (緩和前のサイズ)
 .debug_str     0x000000000000012e      0x2a7 ../../sysroot/lib/libbmetal_crt.a(cpu.c.o)
                                        0x332 (緩和前のサイズ)
 .debug_str     0x00000000000003d5      0x1bc ../../sysroot/lib/libbmetal_crt.a(intr.c.o)
                                        0x315 (緩和前のサイズ)
 .debug_str     0x0000000000000591       0x4b ../../sysroot/lib/libbmetal_crt.a(lock.c.o)
                                         0xea (緩和前のサイズ)
 .debug_str     0x00000000000005dc       0x4b ../../sysroot/lib/libbmetal_crt.a(sync.c.o)
                                         0xe1 (緩和前のサイズ)
 .debug_str     0x0000000000000627      0x125 ../../sysroot/lib/libbmetal_crt.a(thread.c.o)
                                        0x2f5 (緩和前のサイズ)
 .debug_str     0x000000000000074c       0x53 ../../sysroot/lib/libbmetal_crt.a(start.S.o)
                                         0x9e (緩和前のサイズ)
 .debug_str     0x000000000000079f       0xaf ../../sysroot/lib/libbmetal_crt.a(soc.c.o)
                                        0x1f0 (緩和前のサイズ)
 .debug_str     0x000000000000084e      0x234 ../../sysroot/lib/libbmetal_crt.a(clock.c.o)
                                        0x3db (緩和前のサイズ)
 .debug_str     0x0000000000000a82       0xdf ../../sysroot/lib/libbmetal_crt.a(event.c.o)
                                        0x25e (緩和前のサイズ)
 .debug_str     0x0000000000000b61       0x9b ../../sysroot/lib/libbmetal_crt.a(file.c.o)
                                        0x33a (緩和前のサイズ)
 .debug_str     0x0000000000000bfc       0xcb ../../sysroot/lib/libbmetal_crt.a(fini.c.o)
                                        0x371 (緩和前のサイズ)
 .debug_str     0x0000000000000cc7      0x5fd ../../sysroot/lib/libbmetal_crt.a(init.c.o)
                                        0xb6d (緩和前のサイズ)
 .debug_str     0x00000000000012c4       0x94 ../../sysroot/lib/libbmetal_crt.a(intr.c.o)
                                        0x242 (緩和前のサイズ)
 .debug_str     0x0000000000001358      0x107 ../../sysroot/lib/libbmetal_crt.a(lock.c.o)
                                        0x291 (緩和前のサイズ)
 .debug_str     0x000000000000145f      0x172 ../../sysroot/lib/libbmetal_crt.a(printk.c.o)
                                        0x379 (緩和前のサイズ)
 .debug_str     0x00000000000015d1       0x8b ../../sysroot/lib/libbmetal_crt.a(smp.c.o)
                                        0x4d6 (緩和前のサイズ)
 .debug_str     0x000000000000165c      0x50e ../../sysroot/lib/libbmetal_crt.a(syscall.c.o)
                                        0xc51 (緩和前のサイズ)
 .debug_str     0x0000000000001b6a      0x14a ../../sysroot/lib/libbmetal_crt.a(thread.c.o)
                                        0x748 (緩和前のサイズ)
 .debug_str     0x0000000000001cb4      0x178 ../../sysroot/lib/libbmetal_crt.a(vsprintf.c.o)
                                        0x35d (緩和前のサイズ)
 .debug_str     0x0000000000001e2c       0x7b ../../sysroot/lib/libbmetal_crt.a(crt.c.o)
                                        0x136 (緩和前のサイズ)
 .debug_str     0x0000000000001ea7      0x1aa ../../sysroot/lib/libbmetal_crt.a(support.c.o)
                                        0x711 (緩和前のサイズ)
 .debug_str     0x0000000000002051       0xa5 ../../sysroot/lib/libbmetal_crt.a(string.c.o)
                                        0x20f (緩和前のサイズ)
 .debug_str     0x00000000000020f6      0x1ff ../../sysroot/lib/libbmetal_crt.a(board.c.o)
                                        0x67f (緩和前のサイズ)
 .debug_str     0x00000000000022f5      0x24f ../../sysroot/lib/libbmetal_crt.a(device.c.o)
                                        0x5bd (緩和前のサイズ)
 .debug_str     0x0000000000002544       0x6a ../../sysroot/lib/libbmetal_crt.a(io.c.o)
                                        0x32f (緩和前のサイズ)
 .debug_str     0x00000000000025ae      0x2b2 ../../sysroot/lib/libbmetal_crt.a(cpu.c.o)
                                        0xa76 (緩和前のサイズ)
 .debug_str     0x0000000000002860      0x1a3 ../../sysroot/lib/libbmetal_crt.a(riscv.c.o)
                                        0x775 (緩和前のサイズ)
 .debug_str     0x0000000000002a03      0x119 ../../sysroot/lib/libbmetal_crt.a(clk.c.o)
                                        0x47e (緩和前のサイズ)
 .debug_str     0x0000000000002b1c      0x114 ../../sysroot/lib/libbmetal_crt.a(clk_fixed.c.o)
                                        0x488 (緩和前のサイズ)
 .debug_str     0x0000000000002c30      0x167 ../../sysroot/lib/libbmetal_crt.a(intc.c.o)
                                        0x71a (緩和前のサイズ)
 .debug_str     0x0000000000002d97      0x1a7 ../../sysroot/lib/libbmetal_crt.a(rv_priv.c.o)
                                        0x7fe (緩和前のサイズ)
 .debug_str     0x0000000000002f3e       0x94 ../../sysroot/lib/libbmetal_crt.a(timer.c.o)
                                        0x315 (緩和前のサイズ)
 .debug_str     0x0000000000002fd2      0x166 ../../sysroot/lib/libbmetal_crt.a(clint_timer.c.o)
                                        0x55b (緩和前のサイズ)
 .debug_str     0x0000000000003138      0x14d ../../sysroot/lib/libbmetal_crt.a(uart.c.o)
                                        0x4c6 (緩和前のサイズ)
 .debug_str     0x0000000000003285      0x170 ../../sysroot/lib/libbmetal_crt.a(uart_lite.c.o)
                                        0x5ec (緩和前のサイズ)
 .debug_str     0x00000000000033f5      0x4a4 akaria_timer.o
                                        0x597 (緩和前のサイズ)
 .debug_str     0x0000000000003899        0x7 main.o
                                        0x534 (緩和前のサイズ)
 .debug_str     0x00000000000038a0      0x3ca /opt/riscv/lib/gcc/riscv64-unknown-elf/9.2.0/rv32im/ilp32/libgcc.a(_divdi3.o)
                                        0x871 (緩和前のサイズ)
 .debug_str     0x0000000000003c6a        0xa /opt/riscv/lib/gcc/riscv64-unknown-elf/9.2.0/rv32im/ilp32/libgcc.a(_udivdi3.o)
                                        0x872 (緩和前のサイズ)
 .debug_str     0x0000000000003c74        0xa /opt/riscv/lib/gcc/riscv64-unknown-elf/9.2.0/rv32im/ilp32/libgcc.a(_umoddi3.o)
                                        0x872 (緩和前のサイズ)
 .debug_str     0x0000000000003c7e      0x236 /opt/riscv/lib/gcc/riscv64-unknown-elf/9.2.0/rv32im/ilp32/libgcc.a(adddf3.o)
                                        0x338 (緩和前のサイズ)
 .debug_str     0x0000000000003eb4      0x19e /opt/riscv/lib/gcc/riscv64-unknown-elf/9.2.0/rv32im/ilp32/libgcc.a(divdf3.o)
                                        0x3fa (緩和前のサイズ)
 .debug_str     0x0000000000004052       0x59 /opt/riscv/lib/gcc/riscv64-unknown-elf/9.2.0/rv32im/ilp32/libgcc.a(eqdf2.o)
                                        0x252 (緩和前のサイズ)
 .debug_str     0x00000000000040ab       0x5e /opt/riscv/lib/gcc/riscv64-unknown-elf/9.2.0/rv32im/ilp32/libgcc.a(gedf2.o)
                                        0x276 (緩和前のサイズ)
 .debug_str     0x0000000000004109       0x3a /opt/riscv/lib/gcc/riscv64-unknown-elf/9.2.0/rv32im/ilp32/libgcc.a(ledf2.o)
                                        0x276 (緩和前のサイズ)
 .debug_str     0x0000000000004143      0x161 /opt/riscv/lib/gcc/riscv64-unknown-elf/9.2.0/rv32im/ilp32/libgcc.a(muldf3.o)
                                        0x452 (緩和前のサイズ)
 .debug_str     0x00000000000042a4       0x3c /opt/riscv/lib/gcc/riscv64-unknown-elf/9.2.0/rv32im/ilp32/libgcc.a(subdf3.o)
                                        0x338 (緩和前のサイズ)
 .debug_str     0x00000000000042e0       0x51 /opt/riscv/lib/gcc/riscv64-unknown-elf/9.2.0/rv32im/ilp32/libgcc.a(fixdfsi.o)
                                        0x24f (緩和前のサイズ)
 .debug_str     0x0000000000004331       0x44 /opt/riscv/lib/gcc/riscv64-unknown-elf/9.2.0/rv32im/ilp32/libgcc.a(fixunsdfsi.o)
                                        0x24e (緩和前のサイズ)
 .debug_str     0x0000000000004375       0x6f /opt/riscv/lib/gcc/riscv64-unknown-elf/9.2.0/rv32im/ilp32/libgcc.a(floatsidf.o)
                                        0x2e5 (緩和前のサイズ)
 .debug_str     0x00000000000043e4       0x46 /opt/riscv/lib/gcc/riscv64-unknown-elf/9.2.0/rv32im/ilp32/libgcc.a(floatunsidf.o)
                                        0x2e2 (緩和前のサイズ)
 .debug_str     0x000000000000442a      0x7b9 /opt/riscv/lib/gcc/riscv64-unknown-elf/9.2.0/rv32im/ilp32/libgcc.a(_clz.o)
 .debug_str     0x000000000000442a        0x9 /opt/riscv/lib/gcc/riscv64-unknown-elf/9.2.0/rv32im/ilp32/libgcc.a(_clzsi2.o)
                                        0x7d6 (緩和前のサイズ)
 .debug_str     0x0000000000004433       0x6e /opt/riscv/lib/gcc/riscv64-unknown-elf/9.2.0/rv32im/ilp32/libgcc.a(eqtf2.o)
                                        0x24f (緩和前のサイズ)
 .debug_str     0x00000000000044a1       0x3a /opt/riscv/lib/gcc/riscv64-unknown-elf/9.2.0/rv32im/ilp32/libgcc.a(getf2.o)
                                        0x273 (緩和前のサイズ)
 .debug_str     0x00000000000044db       0x3a /opt/riscv/lib/gcc/riscv64-unknown-elf/9.2.0/rv32im/ilp32/libgcc.a(letf2.o)
                                        0x273 (緩和前のサイズ)
 .debug_str     0x0000000000004515      0x29b /opt/riscv/lib/gcc/riscv64-unknown-elf/9.2.0/rv32im/ilp32/libgcc.a(multf3.o)
                                        0x5d9 (緩和前のサイズ)
 .debug_str     0x00000000000047b0       0xd7 /opt/riscv/lib/gcc/riscv64-unknown-elf/9.2.0/rv32im/ilp32/libgcc.a(subtf3.o)
                                        0x4ba (緩和前のサイズ)
 .debug_str     0x0000000000004887       0x3e /opt/riscv/lib/gcc/riscv64-unknown-elf/9.2.0/rv32im/ilp32/libgcc.a(fixtfsi.o)
                                        0x2b7 (緩和前のサイズ)
 .debug_str     0x00000000000048c5       0x42 /opt/riscv/lib/gcc/riscv64-unknown-elf/9.2.0/rv32im/ilp32/libgcc.a(floatsitf.o)
                                        0x37e (緩和前のサイズ)
 .debug_str     0x0000000000004907       0x53 /opt/riscv/lib/gcc/riscv64-unknown-elf/9.2.0/rv32im/ilp32/libgcc.a(extenddftf2.o)
                                        0x2cb (緩和前のサイズ)
 .debug_str     0x000000000000495a       0x44 /opt/riscv/lib/gcc/riscv64-unknown-elf/9.2.0/rv32im/ilp32/libgcc.a(trunctfdf2.o)
                                        0x402 (緩和前のサイズ)

.debug_loc      0x0000000000000000    0x1e6ac
 .debug_loc     0x0000000000000000      0x314 ../../sysroot/lib/libbmetal_crt.a(cpu.c.o)
 .debug_loc     0x0000000000000314      0x3cd ../../sysroot/lib/libbmetal_crt.a(intr.c.o)
 .debug_loc     0x00000000000006e1       0x2c ../../sysroot/lib/libbmetal_crt.a(thread.c.o)
 .debug_loc     0x000000000000070d      0x1b4 ../../sysroot/lib/libbmetal_crt.a(clock.c.o)
 .debug_loc     0x00000000000008c1      0x391 ../../sysroot/lib/libbmetal_crt.a(event.c.o)
 .debug_loc     0x0000000000000c52       0xfd ../../sysroot/lib/libbmetal_crt.a(file.c.o)
 .debug_loc     0x0000000000000d4f      0x6dd ../../sysroot/lib/libbmetal_crt.a(init.c.o)
 .debug_loc     0x000000000000142c       0x42 ../../sysroot/lib/libbmetal_crt.a(intr.c.o)
 .debug_loc     0x000000000000146e      0x30c ../../sysroot/lib/libbmetal_crt.a(lock.c.o)
 .debug_loc     0x000000000000177a      0x68e ../../sysroot/lib/libbmetal_crt.a(printk.c.o)
 .debug_loc     0x0000000000001e08       0xe0 ../../sysroot/lib/libbmetal_crt.a(smp.c.o)
 .debug_loc     0x0000000000001ee8     0x1e02 ../../sysroot/lib/libbmetal_crt.a(syscall.c.o)
 .debug_loc     0x0000000000003cea      0x506 ../../sysroot/lib/libbmetal_crt.a(thread.c.o)
 .debug_loc     0x00000000000041f0     0x296b ../../sysroot/lib/libbmetal_crt.a(vsprintf.c.o)
 .debug_loc     0x0000000000006b5b       0x97 ../../sysroot/lib/libbmetal_crt.a(crt.c.o)
 .debug_loc     0x0000000000006bf2      0x498 ../../sysroot/lib/libbmetal_crt.a(support.c.o)
 .debug_loc     0x000000000000708a      0x76e ../../sysroot/lib/libbmetal_crt.a(string.c.o)
 .debug_loc     0x00000000000077f8      0xff7 ../../sysroot/lib/libbmetal_crt.a(device.c.o)
 .debug_loc     0x00000000000087ef       0xed ../../sysroot/lib/libbmetal_crt.a(io.c.o)
 .debug_loc     0x00000000000088dc     0x1640 ../../sysroot/lib/libbmetal_crt.a(cpu.c.o)
 .debug_loc     0x0000000000009f1c      0x1fa ../../sysroot/lib/libbmetal_crt.a(riscv.c.o)
 .debug_loc     0x000000000000a116      0x550 ../../sysroot/lib/libbmetal_crt.a(clk.c.o)
 .debug_loc     0x000000000000a666      0x153 ../../sysroot/lib/libbmetal_crt.a(clk_fixed.c.o)
 .debug_loc     0x000000000000a7b9      0x7ad ../../sysroot/lib/libbmetal_crt.a(intc.c.o)
 .debug_loc     0x000000000000af66      0x6c5 ../../sysroot/lib/libbmetal_crt.a(rv_priv.c.o)
 .debug_loc     0x000000000000b62b      0x162 ../../sysroot/lib/libbmetal_crt.a(timer.c.o)
 .debug_loc     0x000000000000b78d      0x6c2 ../../sysroot/lib/libbmetal_crt.a(clint_timer.c.o)
 .debug_loc     0x000000000000be4f      0x4c4 ../../sysroot/lib/libbmetal_crt.a(uart.c.o)
 .debug_loc     0x000000000000c313      0xd3f ../../sysroot/lib/libbmetal_crt.a(uart_lite.c.o)
 .debug_loc     0x000000000000d052       0xbc akaria_timer.o
 .debug_loc     0x000000000000d10e      0xa0c /opt/riscv/lib/gcc/riscv64-unknown-elf/9.2.0/rv32im/ilp32/libgcc.a(_divdi3.o)
 .debug_loc     0x000000000000db1a      0xbf5 /opt/riscv/lib/gcc/riscv64-unknown-elf/9.2.0/rv32im/ilp32/libgcc.a(_udivdi3.o)
 .debug_loc     0x000000000000e70f      0x983 /opt/riscv/lib/gcc/riscv64-unknown-elf/9.2.0/rv32im/ilp32/libgcc.a(_umoddi3.o)
 .debug_loc     0x000000000000f092     0x119d /opt/riscv/lib/gcc/riscv64-unknown-elf/9.2.0/rv32im/ilp32/libgcc.a(adddf3.o)
 .debug_loc     0x000000000001022f     0x10fe /opt/riscv/lib/gcc/riscv64-unknown-elf/9.2.0/rv32im/ilp32/libgcc.a(divdf3.o)
 .debug_loc     0x000000000001132d       0xa4 /opt/riscv/lib/gcc/riscv64-unknown-elf/9.2.0/rv32im/ilp32/libgcc.a(eqdf2.o)
 .debug_loc     0x00000000000113d1      0x135 /opt/riscv/lib/gcc/riscv64-unknown-elf/9.2.0/rv32im/ilp32/libgcc.a(gedf2.o)
 .debug_loc     0x0000000000011506      0x135 /opt/riscv/lib/gcc/riscv64-unknown-elf/9.2.0/rv32im/ilp32/libgcc.a(ledf2.o)
 .debug_loc     0x000000000001163b      0xd9a /opt/riscv/lib/gcc/riscv64-unknown-elf/9.2.0/rv32im/ilp32/libgcc.a(muldf3.o)
 .debug_loc     0x00000000000123d5     0x1208 /opt/riscv/lib/gcc/riscv64-unknown-elf/9.2.0/rv32im/ilp32/libgcc.a(subdf3.o)
 .debug_loc     0x00000000000135dd      0x181 /opt/riscv/lib/gcc/riscv64-unknown-elf/9.2.0/rv32im/ilp32/libgcc.a(fixdfsi.o)
 .debug_loc     0x000000000001375e       0xe7 /opt/riscv/lib/gcc/riscv64-unknown-elf/9.2.0/rv32im/ilp32/libgcc.a(fixunsdfsi.o)
 .debug_loc     0x0000000000013845      0x159 /opt/riscv/lib/gcc/riscv64-unknown-elf/9.2.0/rv32im/ilp32/libgcc.a(floatsidf.o)
 .debug_loc     0x000000000001399e      0x14f /opt/riscv/lib/gcc/riscv64-unknown-elf/9.2.0/rv32im/ilp32/libgcc.a(floatunsidf.o)
 .debug_loc     0x0000000000013aed       0x6b /opt/riscv/lib/gcc/riscv64-unknown-elf/9.2.0/rv32im/ilp32/libgcc.a(_clzsi2.o)
 .debug_loc     0x0000000000013b58       0x87 /opt/riscv/lib/gcc/riscv64-unknown-elf/9.2.0/rv32im/ilp32/libgcc.a(eqtf2.o)
 .debug_loc     0x0000000000013bdf      0x134 /opt/riscv/lib/gcc/riscv64-unknown-elf/9.2.0/rv32im/ilp32/libgcc.a(getf2.o)
 .debug_loc     0x0000000000013d13      0x134 /opt/riscv/lib/gcc/riscv64-unknown-elf/9.2.0/rv32im/ilp32/libgcc.a(letf2.o)
 .debug_loc     0x0000000000013e47     0x731c /opt/riscv/lib/gcc/riscv64-unknown-elf/9.2.0/rv32im/ilp32/libgcc.a(multf3.o)
 .debug_loc     0x000000000001b163     0x24fb /opt/riscv/lib/gcc/riscv64-unknown-elf/9.2.0/rv32im/ilp32/libgcc.a(subtf3.o)
 .debug_loc     0x000000000001d65e      0x322 /opt/riscv/lib/gcc/riscv64-unknown-elf/9.2.0/rv32im/ilp32/libgcc.a(fixtfsi.o)
 .debug_loc     0x000000000001d980      0x296 /opt/riscv/lib/gcc/riscv64-unknown-elf/9.2.0/rv32im/ilp32/libgcc.a(floatsitf.o)
 .debug_loc     0x000000000001dc16      0x42a /opt/riscv/lib/gcc/riscv64-unknown-elf/9.2.0/rv32im/ilp32/libgcc.a(extenddftf2.o)
 .debug_loc     0x000000000001e040      0x66c /opt/riscv/lib/gcc/riscv64-unknown-elf/9.2.0/rv32im/ilp32/libgcc.a(trunctfdf2.o)

.debug_frame    0x0000000000000000     0x295c
 .debug_frame   0x0000000000000000       0x68 ../../sysroot/lib/libbmetal_crt.a(cpu.c.o)
 .debug_frame   0x0000000000000068      0x114 ../../sysroot/lib/libbmetal_crt.a(intr.c.o)
 .debug_frame   0x000000000000017c       0x30 ../../sysroot/lib/libbmetal_crt.a(thread.c.o)
 .debug_frame   0x00000000000001ac       0x20 ../../sysroot/lib/libbmetal_crt.a(soc.c.o)
 .debug_frame   0x00000000000001cc       0xa8 ../../sysroot/lib/libbmetal_crt.a(clock.c.o)
 .debug_frame   0x0000000000000274       0xb0 ../../sysroot/lib/libbmetal_crt.a(event.c.o)
 .debug_frame   0x0000000000000324       0x40 ../../sysroot/lib/libbmetal_crt.a(file.c.o)
 .debug_frame   0x0000000000000364       0x30 ../../sysroot/lib/libbmetal_crt.a(fini.c.o)
 .debug_frame   0x0000000000000394      0x16c ../../sysroot/lib/libbmetal_crt.a(init.c.o)
 .debug_frame   0x0000000000000500       0x50 ../../sysroot/lib/libbmetal_crt.a(intr.c.o)
 .debug_frame   0x0000000000000550       0xb0 ../../sysroot/lib/libbmetal_crt.a(lock.c.o)
 .debug_frame   0x0000000000000600      0x208 ../../sysroot/lib/libbmetal_crt.a(printk.c.o)
 .debug_frame   0x0000000000000808       0x7c ../../sysroot/lib/libbmetal_crt.a(smp.c.o)
 .debug_frame   0x0000000000000884      0x50c ../../sysroot/lib/libbmetal_crt.a(syscall.c.o)
 .debug_frame   0x0000000000000d90      0x1f8 ../../sysroot/lib/libbmetal_crt.a(thread.c.o)
 .debug_frame   0x0000000000000f88      0x284 ../../sysroot/lib/libbmetal_crt.a(vsprintf.c.o)
 .debug_frame   0x000000000000120c       0x48 ../../sysroot/lib/libbmetal_crt.a(crt.c.o)
 .debug_frame   0x0000000000001254      0x148 ../../sysroot/lib/libbmetal_crt.a(support.c.o)
 .debug_frame   0x000000000000139c       0x80 ../../sysroot/lib/libbmetal_crt.a(string.c.o)
 .debug_frame   0x000000000000141c       0x30 ../../sysroot/lib/libbmetal_crt.a(board.c.o)
 .debug_frame   0x000000000000144c      0x304 ../../sysroot/lib/libbmetal_crt.a(device.c.o)
 .debug_frame   0x0000000000001750       0x50 ../../sysroot/lib/libbmetal_crt.a(io.c.o)
 .debug_frame   0x00000000000017a0      0x4c0 ../../sysroot/lib/libbmetal_crt.a(cpu.c.o)
 .debug_frame   0x0000000000001c60       0xc4 ../../sysroot/lib/libbmetal_crt.a(riscv.c.o)
 .debug_frame   0x0000000000001d24       0xc8 ../../sysroot/lib/libbmetal_crt.a(clk.c.o)
 .debug_frame   0x0000000000001dec       0x94 ../../sysroot/lib/libbmetal_crt.a(clk_fixed.c.o)
 .debug_frame   0x0000000000001e80      0x140 ../../sysroot/lib/libbmetal_crt.a(intc.c.o)
 .debug_frame   0x0000000000001fc0      0x120 ../../sysroot/lib/libbmetal_crt.a(rv_priv.c.o)
 .debug_frame   0x00000000000020e0       0x74 ../../sysroot/lib/libbmetal_crt.a(timer.c.o)
 .debug_frame   0x0000000000002154       0xd0 ../../sysroot/lib/libbmetal_crt.a(clint_timer.c.o)
 .debug_frame   0x0000000000002224      0x13c ../../sysroot/lib/libbmetal_crt.a(uart.c.o)
 .debug_frame   0x0000000000002360      0x110 ../../sysroot/lib/libbmetal_crt.a(uart_lite.c.o)
 .debug_frame   0x0000000000002470       0x60 akaria_timer.o
 .debug_frame   0x00000000000024d0       0x20 main.o
 .debug_frame   0x00000000000024f0       0x44 /opt/riscv/lib/gcc/riscv64-unknown-elf/9.2.0/rv32im/ilp32/libgcc.a(adddf3.o)
 .debug_frame   0x0000000000002534       0x58 /opt/riscv/lib/gcc/riscv64-unknown-elf/9.2.0/rv32im/ilp32/libgcc.a(divdf3.o)
 .debug_frame   0x000000000000258c       0x20 /opt/riscv/lib/gcc/riscv64-unknown-elf/9.2.0/rv32im/ilp32/libgcc.a(eqdf2.o)
 .debug_frame   0x00000000000025ac       0x20 /opt/riscv/lib/gcc/riscv64-unknown-elf/9.2.0/rv32im/ilp32/libgcc.a(gedf2.o)
 .debug_frame   0x00000000000025cc       0x20 /opt/riscv/lib/gcc/riscv64-unknown-elf/9.2.0/rv32im/ilp32/libgcc.a(ledf2.o)
 .debug_frame   0x00000000000025ec       0x54 /opt/riscv/lib/gcc/riscv64-unknown-elf/9.2.0/rv32im/ilp32/libgcc.a(muldf3.o)
 .debug_frame   0x0000000000002640       0x44 /opt/riscv/lib/gcc/riscv64-unknown-elf/9.2.0/rv32im/ilp32/libgcc.a(subdf3.o)
 .debug_frame   0x0000000000002684       0x20 /opt/riscv/lib/gcc/riscv64-unknown-elf/9.2.0/rv32im/ilp32/libgcc.a(fixdfsi.o)
 .debug_frame   0x00000000000026a4       0x20 /opt/riscv/lib/gcc/riscv64-unknown-elf/9.2.0/rv32im/ilp32/libgcc.a(fixunsdfsi.o)
 .debug_frame   0x00000000000026c4       0x38 /opt/riscv/lib/gcc/riscv64-unknown-elf/9.2.0/rv32im/ilp32/libgcc.a(floatsidf.o)
 .debug_frame   0x00000000000026fc       0x34 /opt/riscv/lib/gcc/riscv64-unknown-elf/9.2.0/rv32im/ilp32/libgcc.a(floatunsidf.o)
 .debug_frame   0x0000000000002730       0x20 /opt/riscv/lib/gcc/riscv64-unknown-elf/9.2.0/rv32im/ilp32/libgcc.a(_clzsi2.o)
 .debug_frame   0x0000000000002750       0x2c /opt/riscv/lib/gcc/riscv64-unknown-elf/9.2.0/rv32im/ilp32/libgcc.a(eqtf2.o)
 .debug_frame   0x000000000000277c       0x2c /opt/riscv/lib/gcc/riscv64-unknown-elf/9.2.0/rv32im/ilp32/libgcc.a(getf2.o)
 .debug_frame   0x00000000000027a8       0x2c /opt/riscv/lib/gcc/riscv64-unknown-elf/9.2.0/rv32im/ilp32/libgcc.a(letf2.o)
 .debug_frame   0x00000000000027d4       0x68 /opt/riscv/lib/gcc/riscv64-unknown-elf/9.2.0/rv32im/ilp32/libgcc.a(multf3.o)
 .debug_frame   0x000000000000283c       0x50 /opt/riscv/lib/gcc/riscv64-unknown-elf/9.2.0/rv32im/ilp32/libgcc.a(subtf3.o)
 .debug_frame   0x000000000000288c       0x2c /opt/riscv/lib/gcc/riscv64-unknown-elf/9.2.0/rv32im/ilp32/libgcc.a(fixtfsi.o)
 .debug_frame   0x00000000000028b8       0x3c /opt/riscv/lib/gcc/riscv64-unknown-elf/9.2.0/rv32im/ilp32/libgcc.a(floatsitf.o)
 .debug_frame   0x00000000000028f4       0x3c /opt/riscv/lib/gcc/riscv64-unknown-elf/9.2.0/rv32im/ilp32/libgcc.a(extenddftf2.o)
 .debug_frame   0x0000000000002930       0x2c /opt/riscv/lib/gcc/riscv64-unknown-elf/9.2.0/rv32im/ilp32/libgcc.a(trunctfdf2.o)

.debug_ranges   0x0000000000000000     0x2ee8
 .debug_ranges  0x0000000000000000       0x40 ../../sysroot/lib/libbmetal_crt.a(event.c.o)
 .debug_ranges  0x0000000000000040      0x1a0 ../../sysroot/lib/libbmetal_crt.a(init.c.o)
 .debug_ranges  0x00000000000001e0       0x60 ../../sysroot/lib/libbmetal_crt.a(lock.c.o)
 .debug_ranges  0x0000000000000240       0x50 ../../sysroot/lib/libbmetal_crt.a(printk.c.o)
 .debug_ranges  0x0000000000000290      0x140 ../../sysroot/lib/libbmetal_crt.a(syscall.c.o)
 .debug_ranges  0x00000000000003d0      0x130 ../../sysroot/lib/libbmetal_crt.a(thread.c.o)
 .debug_ranges  0x0000000000000500      0x228 ../../sysroot/lib/libbmetal_crt.a(vsprintf.c.o)
 .debug_ranges  0x0000000000000728      0x138 ../../sysroot/lib/libbmetal_crt.a(string.c.o)
 .debug_ranges  0x0000000000000860      0x200 ../../sysroot/lib/libbmetal_crt.a(device.c.o)
 .debug_ranges  0x0000000000000a60       0x18 ../../sysroot/lib/libbmetal_crt.a(io.c.o)
 .debug_ranges  0x0000000000000a78      0x2e8 ../../sysroot/lib/libbmetal_crt.a(cpu.c.o)
 .debug_ranges  0x0000000000000d60       0x20 ../../sysroot/lib/libbmetal_crt.a(riscv.c.o)
 .debug_ranges  0x0000000000000d80       0x20 ../../sysroot/lib/libbmetal_crt.a(clk_fixed.c.o)
 .debug_ranges  0x0000000000000da0       0x80 ../../sysroot/lib/libbmetal_crt.a(intc.c.o)
 .debug_ranges  0x0000000000000e20       0xe0 ../../sysroot/lib/libbmetal_crt.a(rv_priv.c.o)
 .debug_ranges  0x0000000000000f00       0x18 ../../sysroot/lib/libbmetal_crt.a(timer.c.o)
 .debug_ranges  0x0000000000000f18      0x190 ../../sysroot/lib/libbmetal_crt.a(clint_timer.c.o)
 .debug_ranges  0x00000000000010a8       0x48 ../../sysroot/lib/libbmetal_crt.a(uart.c.o)
 .debug_ranges  0x00000000000010f0      0x248 ../../sysroot/lib/libbmetal_crt.a(uart_lite.c.o)
 .debug_ranges  0x0000000000001338       0x68 akaria_timer.o
 .debug_ranges  0x00000000000013a0       0x10 main.o
 .debug_ranges  0x00000000000013b0       0xf8 /opt/riscv/lib/gcc/riscv64-unknown-elf/9.2.0/rv32im/ilp32/libgcc.a(_divdi3.o)
 .debug_ranges  0x00000000000014a8      0x100 /opt/riscv/lib/gcc/riscv64-unknown-elf/9.2.0/rv32im/ilp32/libgcc.a(_udivdi3.o)
 .debug_ranges  0x00000000000015a8       0xb8 /opt/riscv/lib/gcc/riscv64-unknown-elf/9.2.0/rv32im/ilp32/libgcc.a(_umoddi3.o)
 .debug_ranges  0x0000000000001660      0x228 /opt/riscv/lib/gcc/riscv64-unknown-elf/9.2.0/rv32im/ilp32/libgcc.a(adddf3.o)
 .debug_ranges  0x0000000000001888      0x198 /opt/riscv/lib/gcc/riscv64-unknown-elf/9.2.0/rv32im/ilp32/libgcc.a(divdf3.o)
 .debug_ranges  0x0000000000001a20       0x48 /opt/riscv/lib/gcc/riscv64-unknown-elf/9.2.0/rv32im/ilp32/libgcc.a(eqdf2.o)
 .debug_ranges  0x0000000000001a68       0x50 /opt/riscv/lib/gcc/riscv64-unknown-elf/9.2.0/rv32im/ilp32/libgcc.a(gedf2.o)
 .debug_ranges  0x0000000000001ab8       0x50 /opt/riscv/lib/gcc/riscv64-unknown-elf/9.2.0/rv32im/ilp32/libgcc.a(ledf2.o)
 .debug_ranges  0x0000000000001b08      0x230 /opt/riscv/lib/gcc/riscv64-unknown-elf/9.2.0/rv32im/ilp32/libgcc.a(muldf3.o)
 .debug_ranges  0x0000000000001d38      0x220 /opt/riscv/lib/gcc/riscv64-unknown-elf/9.2.0/rv32im/ilp32/libgcc.a(subdf3.o)
 .debug_ranges  0x0000000000001f58       0x18 /opt/riscv/lib/gcc/riscv64-unknown-elf/9.2.0/rv32im/ilp32/libgcc.a(fixdfsi.o)
 .debug_ranges  0x0000000000001f70       0x20 /opt/riscv/lib/gcc/riscv64-unknown-elf/9.2.0/rv32im/ilp32/libgcc.a(fixunsdfsi.o)
 .debug_ranges  0x0000000000001f90       0x68 /opt/riscv/lib/gcc/riscv64-unknown-elf/9.2.0/rv32im/ilp32/libgcc.a(floatsidf.o)
 .debug_ranges  0x0000000000001ff8       0x70 /opt/riscv/lib/gcc/riscv64-unknown-elf/9.2.0/rv32im/ilp32/libgcc.a(floatunsidf.o)
 .debug_ranges  0x0000000000002068       0x20 /opt/riscv/lib/gcc/riscv64-unknown-elf/9.2.0/rv32im/ilp32/libgcc.a(_clzsi2.o)
 .debug_ranges  0x0000000000002088       0x60 /opt/riscv/lib/gcc/riscv64-unknown-elf/9.2.0/rv32im/ilp32/libgcc.a(eqtf2.o)
 .debug_ranges  0x00000000000020e8       0x78 /opt/riscv/lib/gcc/riscv64-unknown-elf/9.2.0/rv32im/ilp32/libgcc.a(getf2.o)
 .debug_ranges  0x0000000000002160       0x78 /opt/riscv/lib/gcc/riscv64-unknown-elf/9.2.0/rv32im/ilp32/libgcc.a(letf2.o)
 .debug_ranges  0x00000000000021d8      0x7a0 /opt/riscv/lib/gcc/riscv64-unknown-elf/9.2.0/rv32im/ilp32/libgcc.a(multf3.o)
 .debug_ranges  0x0000000000002978      0x300 /opt/riscv/lib/gcc/riscv64-unknown-elf/9.2.0/rv32im/ilp32/libgcc.a(subtf3.o)
 .debug_ranges  0x0000000000002c78       0x70 /opt/riscv/lib/gcc/riscv64-unknown-elf/9.2.0/rv32im/ilp32/libgcc.a(fixtfsi.o)
 .debug_ranges  0x0000000000002ce8       0x98 /opt/riscv/lib/gcc/riscv64-unknown-elf/9.2.0/rv32im/ilp32/libgcc.a(floatsitf.o)
 .debug_ranges  0x0000000000002d80       0x80 /opt/riscv/lib/gcc/riscv64-unknown-elf/9.2.0/rv32im/ilp32/libgcc.a(extenddftf2.o)
 .debug_ranges  0x0000000000002e00       0xe8 /opt/riscv/lib/gcc/riscv64-unknown-elf/9.2.0/rv32im/ilp32/libgcc.a(trunctfdf2.o)
